Component: ARM Compiler 5.05 (build 41) Tool: armlink [4d0eb9]

==============================================================================

Section Cross References

    blinky.o(i._Z8turnPinsb) refers to wiring_digital.o(i.digitalWrite) for digitalWrite
    blinky.o(i.loop) refers to blinky.o(i._Z8turnPinsb) for turnPins(bool)
    blinky.o(i.loop) refers to wiring.o(i.delay) for delay
    blinky.o(i.setup) refers to wiring_digital.o(i.pinMode) for pinMode
    blinky.o(.ARM.exidx) refers to blinky.o(i.setup) for i.setup
    blinky.o(.ARM.exidx) refers to blinky.o(i._Z8turnPinsb) for i._Z8turnPinsb
    blinky.o(.ARM.exidx) refers to blinky.o(i.loop) for i.loop
    hooks.o(.ARM.exidx) refers to hooks.o(i._Z5yieldv) for i._Z5yieldv
    hooks.o(.ARM.exidx) refers to hooks.o(i._Z11sysTickHookv) for i._Z11sysTickHookv
    hooks.o(.ARM.exidx) refers to hooks.o(i._Z7svcHookv) for i._Z7svcHookv
    itoa.o(i.itoa) refers to itoa.o(i.ltoa) for ltoa
    itoa.o(i.ltoa) refers to uidiv.o(.text) for __aeabi_uidivmod
    itoa.o(i.ultoa) refers to uidiv.o(.text) for __aeabi_uidivmod
    itoa.o(i.utoa) refers to itoa.o(i.ultoa) for ultoa
    itoa.o(.ARM.exidx) refers to itoa.o(i.ltoa) for i.ltoa
    itoa.o(.ARM.exidx) refers to itoa.o(i.itoa) for i.itoa
    itoa.o(.ARM.exidx) refers to itoa.o(i.ultoa) for i.ultoa
    itoa.o(.ARM.exidx) refers to itoa.o(i.utoa) for i.utoa
    main.o(i.main) refers to variant.o(i.init) for init
    main.o(i.main) refers to main.o(i.initVariant) for initVariant
    main.o(i.main) refers to wiring.o(i.delay) for delay
    main.o(i.main) refers to blinky.o(i.setup) for setup
    main.o(i.main) refers to blinky.o(i.loop) for loop
    main.o(.ARM.exidx) refers to main.o(i.initVariant) for i.initVariant
    main.o(.ARM.exidx) refers to main.o(i.main) for i.main
    new.o(i._ZdaPv) refers to mallocr.o(i.__free$realloc) for free
    new.o(i._ZdlPv) refers to mallocr.o(i.__free$realloc) for free
    new.o(i._Znaj) refers to mallocr.o(i.__malloc$realloc) for malloc
    new.o(i._Znwj) refers to mallocr.o(i.__malloc$realloc) for malloc
    new.o(.ARM.exidx) refers to new.o(i._Znwj) for i._Znwj
    new.o(.ARM.exidx) refers to new.o(i._Znaj) for i._Znaj
    new.o(.ARM.exidx) refers to new.o(i._ZdlPv) for i._ZdlPv
    new.o(.ARM.exidx) refers to new.o(i._ZdaPv) for i._ZdaPv
    print.o(i._ZN5Print10printFloatEdh) refers to cdrcmple.o(.text) for __aeabi_cdrcmple
    print.o(i._ZN5Print10printFloatEdh) refers to print.o(i._ZN5Print5writeEPKc) for Print::write(const char*)
    print.o(i._ZN5Print10printFloatEdh) refers to cdcmple.o(.text) for __aeabi_cdcmple
    print.o(i._ZN5Print10printFloatEdh) refers to print.o(i._ZN5Print5printEc) for Print::print(char)
    print.o(i._ZN5Print10printFloatEdh) refers to ddiv.o(.text) for __aeabi_ddiv
    print.o(i._ZN5Print10printFloatEdh) refers to dadd.o(.text) for __aeabi_dadd
    print.o(i._ZN5Print10printFloatEdh) refers to dfixui.o(.text) for __aeabi_d2uiz
    print.o(i._ZN5Print10printFloatEdh) refers to dfltui.o(.text) for __aeabi_ui2d
    print.o(i._ZN5Print10printFloatEdh) refers to print.o(i._ZN5Print5printEmi) for Print::print(unsigned long, int)
    print.o(i._ZN5Print10printFloatEdh) refers to print.o(i._ZN5Print5printEPKc) for Print::print(const char*)
    print.o(i._ZN5Print10printFloatEdh) refers to dmul.o(.text) for __aeabi_dmul
    print.o(i._ZN5Print10printFloatEdh) refers to dfixi.o(.text) for __aeabi_d2iz
    print.o(i._ZN5Print10printFloatEdh) refers to print.o(i._ZN5Print5printEii) for Print::print(int, int)
    print.o(i._ZN5Print10printFloatEdh) refers to dflti.o(.text) for __aeabi_i2d
    print.o(i._ZN5Print11printNumberEmh) refers to uidiv.o(.text) for __aeabi_uidivmod
    print.o(i._ZN5Print11printNumberEmh) refers to print.o(i._ZN5Print5writeEPKc) for Print::write(const char*)
    print.o(i._ZN5Print5printEPK19__FlashStringHelper) refers to print.o(i._ZN5Print5writeEPKc) for Print::write(const char*)
    print.o(i._ZN5Print5printEPKc) refers to print.o(i._ZN5Print5writeEPKc) for Print::write(const char*)
    print.o(i._ZN5Print5printERK6String) refers to wstring.o(i._ZNK6StringixEj) for String::operator [](unsigned) const
    print.o(i._ZN5Print5printEdi) refers to print.o(i._ZN5Print10printFloatEdh) for Print::printFloat(double, unsigned char)
    print.o(i._ZN5Print5printEhi) refers to print.o(i._ZN5Print5printEmi) for Print::print(unsigned long, int)
    print.o(i._ZN5Print5printEii) refers to print.o(i._ZN5Print5printEli) for Print::print(long, int)
    print.o(i._ZN5Print5printEji) refers to print.o(i._ZN5Print5printEmi) for Print::print(unsigned long, int)
    print.o(i._ZN5Print5printEli) refers to print.o(i._ZN5Print5printEc) for Print::print(char)
    print.o(i._ZN5Print5printEli) refers to print.o(i._ZN5Print11printNumberEmh) for Print::printNumber(unsigned long, unsigned char)
    print.o(i._ZN5Print5printEmi) refers to print.o(i._ZN5Print11printNumberEmh) for Print::printNumber(unsigned long, unsigned char)
    print.o(i._ZN5Print7printlnEPK19__FlashStringHelper) refers to print.o(i._ZN5Print5printEPK19__FlashStringHelper) for Print::print(const __FlashStringHelper*)
    print.o(i._ZN5Print7printlnEPK19__FlashStringHelper) refers to print.o(i._ZN5Print7printlnEv) for Print::println()
    print.o(i._ZN5Print7printlnEPKc) refers to print.o(i._ZN5Print5printEPKc) for Print::print(const char*)
    print.o(i._ZN5Print7printlnEPKc) refers to print.o(i._ZN5Print7printlnEv) for Print::println()
    print.o(i._ZN5Print7printlnERK6String) refers to print.o(i._ZN5Print5printERK6String) for Print::print(const String&)
    print.o(i._ZN5Print7printlnERK6String) refers to print.o(i._ZN5Print7printlnEv) for Print::println()
    print.o(i._ZN5Print7printlnERK9Printable) refers to print.o(i._ZN5Print5printERK9Printable) for Print::print(const Printable&)
    print.o(i._ZN5Print7printlnERK9Printable) refers to print.o(i._ZN5Print7printlnEv) for Print::println()
    print.o(i._ZN5Print7printlnEc) refers to print.o(i._ZN5Print5printEc) for Print::print(char)
    print.o(i._ZN5Print7printlnEc) refers to print.o(i._ZN5Print7printlnEv) for Print::println()
    print.o(i._ZN5Print7printlnEdi) refers to print.o(i._ZN5Print5printEdi) for Print::print(double, int)
    print.o(i._ZN5Print7printlnEdi) refers to print.o(i._ZN5Print7printlnEv) for Print::println()
    print.o(i._ZN5Print7printlnEhi) refers to print.o(i._ZN5Print5printEhi) for Print::print(unsigned char, int)
    print.o(i._ZN5Print7printlnEhi) refers to print.o(i._ZN5Print7printlnEv) for Print::println()
    print.o(i._ZN5Print7printlnEii) refers to print.o(i._ZN5Print5printEii) for Print::print(int, int)
    print.o(i._ZN5Print7printlnEii) refers to print.o(i._ZN5Print7printlnEv) for Print::println()
    print.o(i._ZN5Print7printlnEji) refers to print.o(i._ZN5Print5printEji) for Print::print(unsigned, int)
    print.o(i._ZN5Print7printlnEji) refers to print.o(i._ZN5Print7printlnEv) for Print::println()
    print.o(i._ZN5Print7printlnEli) refers to print.o(i._ZN5Print5printEli) for Print::print(long, int)
    print.o(i._ZN5Print7printlnEli) refers to print.o(i._ZN5Print7printlnEv) for Print::println()
    print.o(i._ZN5Print7printlnEmi) refers to print.o(i._ZN5Print5printEmi) for Print::print(unsigned long, int)
    print.o(i._ZN5Print7printlnEmi) refers to print.o(i._ZN5Print7printlnEv) for Print::println()
    print.o(i._ZN5Print7printlnEv) refers to print.o(i._ZN5Print5printEc) for Print::print(char)
    print.o(.ARM.exidx) refers to print.o(i._ZN5Print5writeEPKhj) for i._ZN5Print5writeEPKhj
    print.o(.ARM.exidx) refers to print.o(i._ZN5Print11printNumberEmh) for i._ZN5Print11printNumberEmh
    print.o(.ARM.exidx) refers to print.o(i._ZN5Print5printEc) for i._ZN5Print5printEc
    print.o(.ARM.exidx) refers to print.o(i._ZN5Print5printEli) for i._ZN5Print5printEli
    print.o(.ARM.exidx) refers to print.o(i._ZN5Print5printEii) for i._ZN5Print5printEii
    print.o(.ARM.exidx) refers to print.o(i._ZN5Print5printEPKc) for i._ZN5Print5printEPKc
    print.o(.ARM.exidx) refers to print.o(i._ZN5Print5printEmi) for i._ZN5Print5printEmi
    print.o(.ARM.exidx) refers to print.o(i._ZN5Print10printFloatEdh) for i._ZN5Print10printFloatEdh
    print.o(.ARM.exidx) refers to print.o(i._ZN5Print5printEPK19__FlashStringHelper) for i._ZN5Print5printEPK19__FlashStringHelper
    print.o(.ARM.exidx) refers to print.o(i._ZN5Print5printERK6String) for i._ZN5Print5printERK6String
    print.o(.ARM.exidx) refers to print.o(i._ZN5Print5printEhi) for i._ZN5Print5printEhi
    print.o(.ARM.exidx) refers to print.o(i._ZN5Print5printEji) for i._ZN5Print5printEji
    print.o(.ARM.exidx) refers to print.o(i._ZN5Print5printEdi) for i._ZN5Print5printEdi
    print.o(.ARM.exidx) refers to print.o(i._ZN5Print5printERK9Printable) for i._ZN5Print5printERK9Printable
    print.o(.ARM.exidx) refers to print.o(i._ZN5Print7printlnEv) for i._ZN5Print7printlnEv
    print.o(.ARM.exidx) refers to print.o(i._ZN5Print7printlnEPK19__FlashStringHelper) for i._ZN5Print7printlnEPK19__FlashStringHelper
    print.o(.ARM.exidx) refers to print.o(i._ZN5Print7printlnERK6String) for i._ZN5Print7printlnERK6String
    print.o(.ARM.exidx) refers to print.o(i._ZN5Print7printlnEPKc) for i._ZN5Print7printlnEPKc
    print.o(.ARM.exidx) refers to print.o(i._ZN5Print7printlnEc) for i._ZN5Print7printlnEc
    print.o(.ARM.exidx) refers to print.o(i._ZN5Print7printlnEhi) for i._ZN5Print7printlnEhi
    print.o(.ARM.exidx) refers to print.o(i._ZN5Print7printlnEii) for i._ZN5Print7printlnEii
    print.o(.ARM.exidx) refers to print.o(i._ZN5Print7printlnEji) for i._ZN5Print7printlnEji
    print.o(.ARM.exidx) refers to print.o(i._ZN5Print7printlnEli) for i._ZN5Print7printlnEli
    print.o(.ARM.exidx) refers to print.o(i._ZN5Print7printlnEmi) for i._ZN5Print7printlnEmi
    print.o(.ARM.exidx) refers to print.o(i._ZN5Print7printlnEdi) for i._ZN5Print7printlnEdi
    print.o(.ARM.exidx) refers to print.o(i._ZN5Print7printlnERK9Printable) for i._ZN5Print7printlnERK9Printable
    ringbuffer.o(i._ZN10RingBufferC1Ev) refers to memseta.o(.text) for __aeabi_memclr4
    ringbuffer.o(.ARM.exidx) refers to ringbuffer.o(i._ZN10RingBufferC1Ev) for i._ZN10RingBufferC1Ev
    ringbuffer.o(.ARM.exidx) refers to ringbuffer.o(i._ZN10RingBuffer10store_charEh) for i._ZN10RingBuffer10store_charEh
    stream.o(i._ZN6Stream10parseFloatEc) refers to stream.o(i._ZN6Stream13peekNextDigitEv) for Stream::peekNextDigit()
    stream.o(i._ZN6Stream10parseFloatEc) refers to f2d.o(.text) for __aeabi_f2d
    stream.o(i._ZN6Stream10parseFloatEc) refers to dmul.o(.text) for __aeabi_dmul
    stream.o(i._ZN6Stream10parseFloatEc) refers to d2f.o(.text) for __aeabi_d2f
    stream.o(i._ZN6Stream10parseFloatEc) refers to stream.o(i._ZN6Stream9timedPeekEv) for Stream::timedPeek()
    stream.o(i._ZN6Stream10parseFloatEc) refers to fflti.o(.text) for __aeabi_i2f
    stream.o(i._ZN6Stream10parseFloatEc) refers to fmul.o(.text) for __aeabi_fmul
    stream.o(i._ZN6Stream10parseFloatEv) refers to stream.o(i._ZN6Stream10parseFloatEc) for Stream::parseFloat(char)
    stream.o(i._ZN6Stream10readStringEv) refers to wstring.o(i._ZN6StringC1EPKc) for String::String(const char*)
    stream.o(i._ZN6Stream10readStringEv) refers to wstring.o(i._ZN6String6concatEc) for String::concat(char)
    stream.o(i._ZN6Stream10readStringEv) refers to stream.o(i._ZN6Stream9timedReadEv) for Stream::timedRead()
    stream.o(i._ZN6Stream13peekNextDigitEv) refers to stream.o(i._ZN6Stream9timedPeekEv) for Stream::timedPeek()
    stream.o(i._ZN6Stream14readBytesUntilEcPcj) refers to stream.o(i._ZN6Stream9timedReadEv) for Stream::timedRead()
    stream.o(i._ZN6Stream15readStringUntilEc) refers to wstring.o(i._ZN6StringC1EPKc) for String::String(const char*)
    stream.o(i._ZN6Stream15readStringUntilEc) refers to wstring.o(i._ZN6String6concatEc) for String::concat(char)
    stream.o(i._ZN6Stream15readStringUntilEc) refers to stream.o(i._ZN6Stream9timedReadEv) for Stream::timedRead()
    stream.o(i._ZN6Stream4findEPc) refers to strlen.o(.text) for strlen
    stream.o(i._ZN6Stream4findEPc) refers to stream.o(i._ZN6Stream9findUntilEPcjS0_j) for Stream::findUntil(char*, unsigned, char*, unsigned)
    stream.o(i._ZN6Stream4findEPcj) refers to stream.o(i._ZN6Stream9findUntilEPcjS0_j) for Stream::findUntil(char*, unsigned, char*, unsigned)
    stream.o(i._ZN6Stream8parseIntEc) refers to stream.o(i._ZN6Stream13peekNextDigitEv) for Stream::peekNextDigit()
    stream.o(i._ZN6Stream8parseIntEc) refers to stream.o(i._ZN6Stream9timedPeekEv) for Stream::timedPeek()
    stream.o(i._ZN6Stream8parseIntEv) refers to stream.o(i._ZN6Stream8parseIntEc) for Stream::parseInt(char)
    stream.o(i._ZN6Stream9findUntilEPcS0_) refers to strlen.o(.text) for strlen
    stream.o(i._ZN6Stream9findUntilEPcS0_) refers to stream.o(i._ZN6Stream9findUntilEPcjS0_j) for Stream::findUntil(char*, unsigned, char*, unsigned)
    stream.o(i._ZN6Stream9findUntilEPcjS0_j) refers to stream.o(i._ZN6Stream9timedReadEv) for Stream::timedRead()
    stream.o(i._ZN6Stream9readBytesEPcj) refers to stream.o(i._ZN6Stream9timedReadEv) for Stream::timedRead()
    stream.o(i._ZN6Stream9timedPeekEv) refers to wiring.o(i.millis) for millis
    stream.o(i._ZN6Stream9timedReadEv) refers to wiring.o(i.millis) for millis
    stream.o(.ARM.exidx) refers to stream.o(i._ZN6Stream9timedReadEv) for i._ZN6Stream9timedReadEv
    stream.o(.ARM.exidx) refers to stream.o(i._ZN6Stream9timedPeekEv) for i._ZN6Stream9timedPeekEv
    stream.o(.ARM.exidx) refers to stream.o(i._ZN6Stream13peekNextDigitEv) for i._ZN6Stream13peekNextDigitEv
    stream.o(.ARM.exidx) refers to stream.o(i._ZN6Stream10setTimeoutEm) for i._ZN6Stream10setTimeoutEm
    stream.o(.ARM.exidx) refers to stream.o(i._ZN6Stream9findUntilEPcjS0_j) for i._ZN6Stream9findUntilEPcjS0_j
    stream.o(.ARM.exidx) refers to stream.o(i._ZN6Stream4findEPc) for i._ZN6Stream4findEPc
    stream.o(.ARM.exidx) refers to stream.o(i._ZN6Stream4findEPcj) for i._ZN6Stream4findEPcj
    stream.o(.ARM.exidx) refers to stream.o(i._ZN6Stream9findUntilEPcS0_) for i._ZN6Stream9findUntilEPcS0_
    stream.o(.ARM.exidx) refers to stream.o(i._ZN6Stream8parseIntEc) for i._ZN6Stream8parseIntEc
    stream.o(.ARM.exidx) refers to stream.o(i._ZN6Stream8parseIntEv) for i._ZN6Stream8parseIntEv
    stream.o(.ARM.exidx) refers to stream.o(i._ZN6Stream10parseFloatEc) for i._ZN6Stream10parseFloatEc
    stream.o(.ARM.exidx) refers to stream.o(i._ZN6Stream10parseFloatEv) for i._ZN6Stream10parseFloatEv
    stream.o(.ARM.exidx) refers to stream.o(i._ZN6Stream9readBytesEPcj) for i._ZN6Stream9readBytesEPcj
    stream.o(.ARM.exidx) refers to stream.o(i._ZN6Stream14readBytesUntilEcPcj) for i._ZN6Stream14readBytesUntilEcPcj
    stream.o(.ARM.exidx) refers to stream.o(i._ZN6Stream10readStringEv) for i._ZN6Stream10readStringEv
    stream.o(.ARM.exidx) refers to stream.o(i._ZN6Stream15readStringUntilEc) for i._ZN6Stream15readStringUntilEc
    tone.o(i._Z14TIMER2_handlerv) refers to tone.o(i._Z6noTonej) for noTone(unsigned)
    tone.o(i._Z14TIMER2_handlerv) refers to tone.o(.data) for .data
    tone.o(i._Z4tonejt) refers to tone.o(i._Z4tonejtj) for tone(unsigned, unsigned short, unsigned)
    tone.o(i._Z4tonejtj) refers to wiring_analog.o(i.GPIOTE_Channel_Find) for GPIOTE_Channel_Find
    tone.o(i._Z4tonejtj) refers to pin_transform.o(i.Pin_nRF51822_to_Arduino) for Pin_nRF51822_to_Arduino
    tone.o(i._Z4tonejtj) refers to uidiv.o(.text) for __aeabi_uidivmod
    tone.o(i._Z4tonejtj) refers to wiring_analog.o(i.GPIOTE_Channel_Set) for GPIOTE_Channel_Set
    tone.o(i._Z4tonejtj) refers to winterrupts.o(i.LinkInterrupt) for LinkInterrupt
    tone.o(i._Z4tonejtj) refers to tone.o(.data) for .data
    tone.o(i._Z4tonejtj) refers to tone.o(i._Z14TIMER2_handlerv) for TIMER2_handler()
    tone.o(i._Z6noTonej) refers to pin_transform.o(i.Pin_nRF51822_to_Arduino) for Pin_nRF51822_to_Arduino
    tone.o(i._Z6noTonej) refers to winterrupts.o(i.UnlinkInterrupt) for UnlinkInterrupt
    tone.o(i._Z6noTonej) refers to wiring_analog.o(i.GPIOTE_Channel_Clean) for GPIOTE_Channel_Clean
    tone.o(i._Z6noTonej) refers to tone.o(.data) for .data
    tone.o(.ARM.exidx) refers to tone.o(i._Z6noTonej) for i._Z6noTonej
    tone.o(.ARM.exidx) refers to tone.o(i._Z14TIMER2_handlerv) for i._Z14TIMER2_handlerv
    tone.o(.ARM.exidx) refers to tone.o(i._Z4tonejtj) for i._Z4tonejtj
    tone.o(.ARM.exidx) refers to tone.o(i._Z4tonejt) for i._Z4tonejt
    uartclass.o(i._ZN9UARTClass10IrqHandlerEv) refers to wuart.o(i._Z17UART0_ReadRXStatev) for UART0_ReadRXState()
    uartclass.o(i._ZN9UARTClass10IrqHandlerEv) refers to wuart.o(i._Z18UART0_ClearRXStatev) for UART0_ClearRXState()
    uartclass.o(i._ZN9UARTClass10IrqHandlerEv) refers to wuart.o(i._Z16UART0_ReadRXDatev) for UART0_ReadRXDate()
    uartclass.o(i._ZN9UARTClass10IrqHandlerEv) refers to wuart.o(i._Z18UART0_CheckRXErrorv) for UART0_CheckRXError()
    uartclass.o(i._ZN9UARTClass10IrqHandlerEv) refers to ringbuffer.o(i._ZN10RingBuffer10store_charEh) for RingBuffer::store_char(unsigned char)
    uartclass.o(i._ZN9UARTClass3endEv) refers to wuart.o(i._Z10UART0_Stopv) for UART0_Stop()
    uartclass.o(i._ZN9UARTClass5beginEj) refers to wuart.o(i._Z11UART0_Startjjj) for UART0_Start(unsigned, unsigned, unsigned)
    uartclass.o(i._ZN9UARTClass5beginEjjj) refers to pin_transform.o(i.Pin_nRF51822_to_Arduino) for Pin_nRF51822_to_Arduino
    uartclass.o(i._ZN9UARTClass5beginEjjj) refers to wuart.o(i._Z11UART0_Startjjj) for UART0_Start(unsigned, unsigned, unsigned)
    uartclass.o(i._ZN9UARTClass5flushEv) refers to wuart.o(i._Z18UART0_WaitTXFinishv) for UART0_WaitTXFinish()
    uartclass.o(i._ZN9UARTClass5writeEh) refers to wuart.o(i._Z8UART0_TXh) for UART0_TX(unsigned char)
    uartclass.o(i._ZN9UARTClassC1EP10RingBuffer) refers to uartclass.o(.constdata__ZTV9UARTClass) for vtable for UARTClass
    uartclass.o(.ARM.exidx) refers to uartclass.o(i._ZN9UARTClassC1EP10RingBuffer) for i._ZN9UARTClassC1EP10RingBuffer
    uartclass.o(.ARM.exidx) refers to uartclass.o(i._ZN9UARTClass5beginEj) for i._ZN9UARTClass5beginEj
    uartclass.o(.ARM.exidx) refers to uartclass.o(i._ZN9UARTClass5beginEjjj) for i._ZN9UARTClass5beginEjjj
    uartclass.o(.ARM.exidx) refers to uartclass.o(i._ZN9UARTClass3endEv) for i._ZN9UARTClass3endEv
    uartclass.o(.ARM.exidx) refers to uartclass.o(i._ZN9UARTClass9availableEv) for i._ZN9UARTClass9availableEv
    uartclass.o(.ARM.exidx) refers to uartclass.o(i._ZN9UARTClass4peekEv) for i._ZN9UARTClass4peekEv
    uartclass.o(.ARM.exidx) refers to uartclass.o(i._ZN9UARTClass4readEv) for i._ZN9UARTClass4readEv
    uartclass.o(.ARM.exidx) refers to uartclass.o(i._ZN9UARTClass5flushEv) for i._ZN9UARTClass5flushEv
    uartclass.o(.ARM.exidx) refers to uartclass.o(i._ZN9UARTClass5writeEh) for i._ZN9UARTClass5writeEh
    uartclass.o(.ARM.exidx) refers to uartclass.o(i._ZN9UARTClass10IrqHandlerEv) for i._ZN9UARTClass10IrqHandlerEv
    uartclass.o(.ARM.exidx) refers to uartclass.o(i._ZN9UARTClass10irq_attachEPFvvE) for i._ZN9UARTClass10irq_attachEPFvvE
    winterrupts.o(i._Z14GPIOTE_handlerv) refers to winterrupts.o(i._Z20delay_ex_interrupterj) for delay_ex_interrupter(unsigned)
    winterrupts.o(i._Z14GPIOTE_handlerv) refers to winterrupts.o(.data) for .data
    winterrupts.o(i._Z14GPIOTE_handlerv) refers to winterrupts.o(.bss) for .bss
    winterrupts.o(i.attachInterrupt) refers to wiring_analog.o(i.GPIOTE_Channel_Find) for GPIOTE_Channel_Find
    winterrupts.o(i.attachInterrupt) refers to pin_transform.o(i.Pin_nRF51822_to_Arduino) for Pin_nRF51822_to_Arduino
    winterrupts.o(i.attachInterrupt) refers to wiring_analog.o(i.GPIOTE_Channel_Set) for GPIOTE_Channel_Set
    winterrupts.o(i.attachInterrupt) refers to winterrupts.o(.data) for .data
    winterrupts.o(i.attachInterrupt) refers to winterrupts.o(.bss) for .bss
    winterrupts.o(i.detachInterrupt) refers to pin_transform.o(i.Pin_nRF51822_to_Arduino) for Pin_nRF51822_to_Arduino
    winterrupts.o(i.detachInterrupt) refers to wiring_analog.o(i.GPIOTE_Channel_Clean) for GPIOTE_Channel_Clean
    winterrupts.o(i.detachInterrupt) refers to winterrupts.o(.data) for .data
    winterrupts.o(.ARM.exidx) refers to winterrupts.o(i._Z20delay_ex_interrupterj) for i._Z20delay_ex_interrupterj
    winterrupts.o(.ARM.exidx) refers to winterrupts.o(i._Z14GPIOTE_handlerv) for i._Z14GPIOTE_handlerv
    winterrupts.o(.ARM.exidx) refers to winterrupts.o(i.LinkInterrupt) for i.LinkInterrupt
    winterrupts.o(.ARM.exidx) refers to winterrupts.o(i.attachInterrupt) for i.attachInterrupt
    winterrupts.o(.ARM.exidx) refers to winterrupts.o(i.UnlinkInterrupt) for i.UnlinkInterrupt
    winterrupts.o(.ARM.exidx) refers to winterrupts.o(i.detachInterrupt) for i.detachInterrupt
    wiring.o(i.delay) refers to nrf_delay.o(i._Z12nrf_delay_msj) for nrf_delay_ms(unsigned)
    wiring.o(i.delayMicroseconds) refers to wiring.o(.emb_text) for __asm___8_wiring_c_604257f4___Z12nrf_delay_usj
    wiring.o(i.micros) refers to wiring.o(i.micros64) for micros64
    wiring.o(i.micros64) refers to app_timer.o(i._Z17app_timer_cnt_getPj) for app_timer_cnt_get(unsigned*)
    wiring.o(i.micros64) refers to llmul.o(.text) for __aeabi_lmul
    wiring.o(i.micros64) refers to wiring.o(.data) for .data
    wiring.o(i.millis) refers to wiring.o(i.millis64) for millis64
    wiring.o(i.millis64) refers to app_timer.o(i._Z17app_timer_cnt_getPj) for app_timer_cnt_get(unsigned*)
    wiring.o(i.millis64) refers to llmul.o(.text) for __aeabi_lmul
    wiring.o(i.millis64) refers to wiring.o(.data) for .data
    wiring.o(i.rtc_timer_init) refers to app_timer.o(i._Z14app_timer_initjhhPvPFjPFvS_ES_E) for app_timer_init(unsigned, unsigned char, unsigned char, void*, unsigned(*)(void(*)(void*), void*))
    wiring.o(i.rtc_timer_init) refers to app_error_check.o(i._Z17app_error_handlerjjPKh) for app_error_handler(unsigned, unsigned, const unsigned char*)
    wiring.o(i.rtc_timer_init) refers to app_timer.o(i._Z16app_timer_createPj16app_timer_mode_tPFvPvE) for app_timer_create(unsigned*, app_timer_mode_t, void(*)(void*))
    wiring.o(i.rtc_timer_init) refers to app_timer.o(i._Z15app_timer_startjjPv) for app_timer_start(unsigned, unsigned, void*)
    wiring.o(i.rtc_timer_init) refers to wiring.o(.bss) for .bss
    wiring.o(i.rtc_timer_init) refers to wiring.o(i.rtc_timout_timer_handle) for rtc_timout_timer_handle
    wiring.o(i.rtc_timer_init) refers to wiring.o(.data) for .data
    wiring.o(.ARM.exidx) refers to wiring.o(i.timer_error_check) for i.timer_error_check
    wiring.o(.ARM.exidx) refers to wiring.o(i.rtc_timout_timer_handle) for i.rtc_timout_timer_handle
    wiring.o(.ARM.exidx) refers to wiring.o(i.rtc_timer_init) for i.rtc_timer_init
    wiring.o(.ARM.exidx) refers to wiring.o(i.millis64) for i.millis64
    wiring.o(.ARM.exidx) refers to wiring.o(i.micros64) for i.micros64
    wiring.o(.ARM.exidx) refers to wiring.o(i.millis) for i.millis
    wiring.o(.ARM.exidx) refers to wiring.o(i.micros) for i.micros
    wiring.o(.ARM.exidx) refers to wiring.o(i.delay) for i.delay
    wiring.o(.ARM.exidx) refers to wiring.o(i.delayMicroseconds) for i.delayMicroseconds
    wiring_analog.o(i.GPIOTE_Channel_Clean) refers to wiring_analog.o(.data) for .data
    wiring_analog.o(i.GPIOTE_Channel_Find) refers to wiring_analog.o(.data) for .data
    wiring_analog.o(i.GPIOTE_Channel_Set) refers to wiring_analog.o(.data) for .data
    wiring_analog.o(i.PPI_ON_TIMER_GPIO) refers to wiring_analog.o(i.find_free_PPI_channel) for find_free_PPI_channel
    wiring_analog.o(i.PPI_ON_TIMER_GPIO) refers to wiring_analog.o(.data) for .data
    wiring_analog.o(i.PPI_Off_FROM_GPIO) refers to wiring_analog.o(i.GPIOTE_Channel_Clean) for GPIOTE_Channel_Clean
    wiring_analog.o(i.PPI_Off_FROM_GPIO) refers to winterrupts.o(i.UnlinkInterrupt) for UnlinkInterrupt
    wiring_analog.o(i.PPI_Off_FROM_GPIO) refers to wiring_analog.o(.data) for .data
    wiring_analog.o(i._Z14TIMER1_handlerv) refers to wiring_analog.o(i._Z22nrf_gpiote_task_configjj21nrf_gpiote_polarity_t20nrf_gpiote_outinit_t) for nrf_gpiote_task_config(unsigned, unsigned, nrf_gpiote_polarity_t, nrf_gpiote_outinit_t)
    wiring_analog.o(i._Z14TIMER1_handlerv) refers to wiring_analog.o(.data) for .data
    wiring_analog.o(i._Z16update_PWM_valuejjj) refers to wiring_analog.o(i._Z21conversion_Resolutionjjj) for conversion_Resolution(unsigned, unsigned, unsigned)
    wiring_analog.o(i._Z16update_PWM_valuejjj) refers to wiring_analog.o(.data) for .data
    wiring_analog.o(i.analogInpselType) refers to wiring_analog.o(.data) for .data
    wiring_analog.o(i.analogRead) refers to pin_transform.o(i.Pin_nRF51822_to_Arduino) for Pin_nRF51822_to_Arduino
    wiring_analog.o(i.analogRead) refers to wiring_analog.o(i._Z21conversion_Resolutionjjj) for conversion_Resolution(unsigned, unsigned, unsigned)
    wiring_analog.o(i.analogRead) refers to wiring_analog.o(.data) for .data
    wiring_analog.o(i.analogReadResolution) refers to wiring_analog.o(.data) for .data
    wiring_analog.o(i.analogReference) refers to wiring_analog.o(.data) for .data
    wiring_analog.o(i.analogWrite) refers to pin_transform.o(i.Pin_nRF51822_to_Arduino) for Pin_nRF51822_to_Arduino
    wiring_analog.o(i.analogWrite) refers to fflti.o(.text) for __aeabi_i2f
    wiring_analog.o(i.analogWrite) refers to powf.o(i.powf) for powf
    wiring_analog.o(i.analogWrite) refers to fadd.o(.text) for __aeabi_fsub
    wiring_analog.o(i.analogWrite) refers to ffixui.o(.text) for __aeabi_f2uiz
    wiring_analog.o(i.analogWrite) refers to wiring_analog.o(i.PPI_Off_FROM_GPIO) for PPI_Off_FROM_GPIO
    wiring_analog.o(i.analogWrite) refers to wiring_analog.o(i._Z16update_PWM_valuejjj) for update_PWM_value(unsigned, unsigned, unsigned)
    wiring_analog.o(i.analogWrite) refers to wiring_analog.o(i.GPIOTE_Channel_Find) for GPIOTE_Channel_Find
    wiring_analog.o(i.analogWrite) refers to wiring_analog.o(i._Z22nrf_gpiote_task_configjj21nrf_gpiote_polarity_t20nrf_gpiote_outinit_t) for nrf_gpiote_task_config(unsigned, unsigned, nrf_gpiote_polarity_t, nrf_gpiote_outinit_t)
    wiring_analog.o(i.analogWrite) refers to wiring_analog.o(i.PPI_ON_TIMER_GPIO) for PPI_ON_TIMER_GPIO
    wiring_analog.o(i.analogWrite) refers to wiring_analog.o(i._Z21conversion_Resolutionjjj) for conversion_Resolution(unsigned, unsigned, unsigned)
    wiring_analog.o(i.analogWrite) refers to winterrupts.o(i.LinkInterrupt) for LinkInterrupt
    wiring_analog.o(i.analogWrite) refers to wiring_analog.o(.data) for .data
    wiring_analog.o(i.analogWrite) refers to wiring_analog.o(i._Z14TIMER1_handlerv) for TIMER1_handler()
    wiring_analog.o(i.analogWriteResolution) refers to wiring_analog.o(.data) for .data
    wiring_analog.o(i.find_free_PPI_channel) refers to wiring_analog.o(.data) for .data
    wiring_analog.o(.ARM.exidx) refers to wiring_analog.o(i._Z22nrf_gpiote_task_configjj21nrf_gpiote_polarity_t20nrf_gpiote_outinit_t) for i._Z22nrf_gpiote_task_configjj21nrf_gpiote_polarity_t20nrf_gpiote_outinit_t
    wiring_analog.o(.ARM.exidx) refers to wiring_analog.o(i.analogInpselType) for i.analogInpselType
    wiring_analog.o(.ARM.exidx) refers to wiring_analog.o(i.analogReference) for i.analogReference
    wiring_analog.o(.ARM.exidx) refers to wiring_analog.o(i.analogReadResolution) for i.analogReadResolution
    wiring_analog.o(.ARM.exidx) refers to wiring_analog.o(i.analogWriteResolution) for i.analogWriteResolution
    wiring_analog.o(.ARM.exidx) refers to wiring_analog.o(i.GPIOTE_Channel_Find) for i.GPIOTE_Channel_Find
    wiring_analog.o(.ARM.exidx) refers to wiring_analog.o(i.GPIOTE_Channel_Set) for i.GPIOTE_Channel_Set
    wiring_analog.o(.ARM.exidx) refers to wiring_analog.o(i.GPIOTE_Channel_Clean) for i.GPIOTE_Channel_Clean
    wiring_analog.o(.ARM.exidx) refers to wiring_analog.o(i.analogRead) for i.analogRead
    wiring_analog.o(.ARM.exidx) refers to wiring_analog.o(i._Z16update_PWM_valuejjj) for i._Z16update_PWM_valuejjj
    wiring_analog.o(.ARM.exidx) refers to wiring_analog.o(i.find_free_PPI_channel) for i.find_free_PPI_channel
    wiring_analog.o(.ARM.exidx) refers to wiring_analog.o(i.PPI_ON_TIMER_GPIO) for i.PPI_ON_TIMER_GPIO
    wiring_analog.o(.ARM.exidx) refers to wiring_analog.o(i.PPI_Off_FROM_GPIO) for i.PPI_Off_FROM_GPIO
    wiring_analog.o(.ARM.exidx) refers to wiring_analog.o(i._Z14TIMER1_handlerv) for i._Z14TIMER1_handlerv
    wiring_analog.o(.ARM.exidx) refers to wiring_analog.o(i.analogWrite) for i.analogWrite
    wiring_analog.o(.ARM.exidx) refers to wiring_analog.o(i._Z21conversion_Resolutionjjj) for i._Z21conversion_Resolutionjjj
    wiring_digital.o(i.digitalRead) refers to pin_transform.o(i.Pin_nRF51822_to_Arduino) for Pin_nRF51822_to_Arduino
    wiring_digital.o(i.digitalRead) refers to wiring_analog.o(i.PPI_Off_FROM_GPIO) for PPI_Off_FROM_GPIO
    wiring_digital.o(i.digitalWrite) refers to pin_transform.o(i.Pin_nRF51822_to_Arduino) for Pin_nRF51822_to_Arduino
    wiring_digital.o(i.digitalWrite) refers to wiring_analog.o(i.PPI_Off_FROM_GPIO) for PPI_Off_FROM_GPIO
    wiring_digital.o(i.pinMode) refers to pin_transform.o(i.Pin_nRF51822_to_Arduino) for Pin_nRF51822_to_Arduino
    wiring_digital.o(i.pinMode) refers to wiring_digital.o(i.__ARM_common_switch8) for __ARM_common_switch8
    wiring_digital.o(.ARM.exidx) refers to wiring_digital.o(i.pinMode) for i.pinMode
    wiring_digital.o(.ARM.exidx) refers to wiring_digital.o(i.digitalWrite) for i.digitalWrite
    wiring_digital.o(.ARM.exidx) refers to wiring_digital.o(i.digitalRead) for i.digitalRead
    wiring_pulse.o(i.pulseIn) refers to pin_transform.o(i.Pin_nRF51822_to_Arduino) for Pin_nRF51822_to_Arduino
    wiring_pulse.o(.ARM.exidx) refers to wiring_pulse.o(i.pulseIn) for i.pulseIn
    wiring_shift.o(i.shiftIn) refers to wiring_digital.o(i.digitalWrite) for digitalWrite
    wiring_shift.o(i.shiftIn) refers to wiring_digital.o(i.digitalRead) for digitalRead
    wiring_shift.o(i.shiftOut) refers to wiring_digital.o(i.digitalWrite) for digitalWrite
    wiring_shift.o(.ARM.exidx) refers to wiring_shift.o(i.shiftIn) for i.shiftIn
    wiring_shift.o(.ARM.exidx) refers to wiring_shift.o(i.shiftOut) for i.shiftOut
    wmath.o(i._Z10randomSeedj) refers to rand.o(.text) for srand
    wmath.o(i._Z3maplllll) refers to idiv.o(.text) for __aeabi_idivmod
    wmath.o(i._Z6randoml) refers to rand.o(.text) for rand
    wmath.o(i._Z6randoml) refers to idiv.o(.text) for __aeabi_idivmod
    wmath.o(i._Z6randomll) refers to wmath.o(i._Z6randoml) for random(long)
    wmath.o(.ARM.exidx) refers to wmath.o(i._Z10randomSeedj) for i._Z10randomSeedj
    wmath.o(.ARM.exidx) refers to wmath.o(i._Z6randoml) for i._Z6randoml
    wmath.o(.ARM.exidx) refers to wmath.o(i._Z6randomll) for i._Z6randomll
    wmath.o(.ARM.exidx) refers to wmath.o(i._Z3maplllll) for i._Z3maplllll
    wmath.o(.ARM.exidx) refers to wmath.o(i._Z8makeWordt) for i._Z8makeWordt
    wmath.o(.ARM.exidx) refers to wmath.o(i._Z8makeWordhh) for i._Z8makeWordhh
    wstring.o(i._ZN6String10invalidateEv) refers to mallocr.o(i.__free$realloc) for free
    wstring.o(i._ZN6String11toLowerCaseEv) refers to tolower.o(.text) for tolower
    wstring.o(i._ZN6String11toUpperCaseEv) refers to toupper.o(.text) for toupper
    wstring.o(i._ZN6String12changeBufferEj) refers to mallocr.o(i.realloc) for realloc
    wstring.o(i._ZN6String4copyEPKcj) refers to wstring.o(i._ZN6String7reserveEj) for String::reserve(unsigned)
    wstring.o(i._ZN6String4copyEPKcj) refers to strcpy.o(.text) for strcpy
    wstring.o(i._ZN6String4copyEPKcj) refers to wstring.o(i._ZN6String10invalidateEv) for String::invalidate()
    wstring.o(i._ZN6String4trimEv) refers to ctype_o.o(.text) for __rt_ctype_table
    wstring.o(i._ZN6String4trimEv) refers to memmovea.o(.text) for __aeabi_memcpy
    wstring.o(i._ZN6String6concatEPKc) refers to strlen.o(.text) for strlen
    wstring.o(i._ZN6String6concatEPKc) refers to wstring.o(i._ZN6String6concatEPKcj) for String::concat(const char*, unsigned)
    wstring.o(i._ZN6String6concatEPKcj) refers to wstring.o(i._ZN6String7reserveEj) for String::reserve(unsigned)
    wstring.o(i._ZN6String6concatEPKcj) refers to strcpy.o(.text) for strcpy
    wstring.o(i._ZN6String6concatERKS_) refers to wstring.o(i._ZN6String6concatEPKcj) for String::concat(const char*, unsigned)
    wstring.o(i._ZN6String6concatEc) refers to wstring.o(i._ZN6String6concatEPKcj) for String::concat(const char*, unsigned)
    wstring.o(i._ZN6String6concatEd) refers to dtoa.o(i.dtoa) for dtoa
    wstring.o(i._ZN6String6concatEd) refers to strlen.o(.text) for strlen
    wstring.o(i._ZN6String6concatEd) refers to wstring.o(i._ZN6String6concatEPKcj) for String::concat(const char*, unsigned)
    wstring.o(i._ZN6String6concatEf) refers to f2d.o(.text) for __aeabi_f2d
    wstring.o(i._ZN6String6concatEf) refers to dtoa.o(i.dtoa) for dtoa
    wstring.o(i._ZN6String6concatEf) refers to strlen.o(.text) for strlen
    wstring.o(i._ZN6String6concatEf) refers to wstring.o(i._ZN6String6concatEPKcj) for String::concat(const char*, unsigned)
    wstring.o(i._ZN6String6concatEh) refers to itoa.o(i.itoa) for itoa
    wstring.o(i._ZN6String6concatEh) refers to strlen.o(.text) for strlen
    wstring.o(i._ZN6String6concatEh) refers to wstring.o(i._ZN6String6concatEPKcj) for String::concat(const char*, unsigned)
    wstring.o(i._ZN6String6concatEi) refers to itoa.o(i.itoa) for itoa
    wstring.o(i._ZN6String6concatEi) refers to strlen.o(.text) for strlen
    wstring.o(i._ZN6String6concatEi) refers to wstring.o(i._ZN6String6concatEPKcj) for String::concat(const char*, unsigned)
    wstring.o(i._ZN6String6concatEj) refers to itoa.o(i.utoa) for utoa
    wstring.o(i._ZN6String6concatEj) refers to strlen.o(.text) for strlen
    wstring.o(i._ZN6String6concatEj) refers to wstring.o(i._ZN6String6concatEPKcj) for String::concat(const char*, unsigned)
    wstring.o(i._ZN6String6concatEl) refers to itoa.o(i.ltoa) for ltoa
    wstring.o(i._ZN6String6concatEl) refers to strlen.o(.text) for strlen
    wstring.o(i._ZN6String6concatEl) refers to wstring.o(i._ZN6String6concatEPKcj) for String::concat(const char*, unsigned)
    wstring.o(i._ZN6String6concatEm) refers to itoa.o(i.ultoa) for ultoa
    wstring.o(i._ZN6String6concatEm) refers to strlen.o(.text) for strlen
    wstring.o(i._ZN6String6concatEm) refers to wstring.o(i._ZN6String6concatEPKcj) for String::concat(const char*, unsigned)
    wstring.o(i._ZN6String6removeEj) refers to wstring.o(i._ZN6String6removeEjj) for String::remove(unsigned, unsigned)
    wstring.o(i._ZN6String6removeEjj) refers to strncpy.o(.text) for strncpy
    wstring.o(i._ZN6String7replaceERKS_S1_) refers to memmovea.o(.text) for __aeabi_memcpy
    wstring.o(i._ZN6String7replaceERKS_S1_) refers to wstring.o(i._ZSt6strstrPcPKc) for std::strstr(char*, const char*)
    wstring.o(i._ZN6String7replaceERKS_S1_) refers to strcpy.o(.text) for strcpy
    wstring.o(i._ZN6String7replaceERKS_S1_) refers to wstring.o(i._ZN6String12changeBufferEj) for String::changeBuffer(unsigned)
    wstring.o(i._ZN6String7replaceERKS_S1_) refers to wstring.o(i._ZNK6String11lastIndexOfERKS_j) for String::lastIndexOf(const String&, unsigned) const
    wstring.o(i._ZN6String7reserveEj) refers to wstring.o(i._ZN6String12changeBufferEj) for String::changeBuffer(unsigned)
    wstring.o(i._ZN6StringC1EPKc) refers to wstring.o(i._ZN6String4initEv) for String::init()
    wstring.o(i._ZN6StringC1EPKc) refers to strlen.o(.text) for strlen
    wstring.o(i._ZN6StringC1EPKc) refers to wstring.o(i._ZN6String4copyEPKcj) for String::copy(const char*, unsigned)
    wstring.o(i._ZN6StringC1ERKS_) refers to wstring.o(i._ZN6String4initEv) for String::init()
    wstring.o(i._ZN6StringC1ERKS_) refers to wstring.o(i._ZN6StringaSERKS_) for String::operator =(const String&)
    wstring.o(i._ZN6StringC1Ec) refers to wstring.o(i._ZN6String4initEv) for String::init()
    wstring.o(i._ZN6StringC1Ec) refers to wstring.o(i._ZN6StringaSEPKc) for String::operator =(const char*)
    wstring.o(i._ZN6StringC1Edh) refers to wstring.o(i._ZN6String4initEv) for String::init()
    wstring.o(i._ZN6StringC1Edh) refers to dtoa.o(i.dtoa) for dtoa
    wstring.o(i._ZN6StringC1Edh) refers to wstring.o(i._ZN6StringaSEPKc) for String::operator =(const char*)
    wstring.o(i._ZN6StringC1Efh) refers to wstring.o(i._ZN6String4initEv) for String::init()
    wstring.o(i._ZN6StringC1Efh) refers to f2d.o(.text) for __aeabi_f2d
    wstring.o(i._ZN6StringC1Efh) refers to dtoa.o(i.dtoa) for dtoa
    wstring.o(i._ZN6StringC1Efh) refers to wstring.o(i._ZN6StringaSEPKc) for String::operator =(const char*)
    wstring.o(i._ZN6StringC1Ehh) refers to wstring.o(i._ZN6String4initEv) for String::init()
    wstring.o(i._ZN6StringC1Ehh) refers to itoa.o(i.utoa) for utoa
    wstring.o(i._ZN6StringC1Ehh) refers to wstring.o(i._ZN6StringaSEPKc) for String::operator =(const char*)
    wstring.o(i._ZN6StringC1Eih) refers to wstring.o(i._ZN6String4initEv) for String::init()
    wstring.o(i._ZN6StringC1Eih) refers to itoa.o(i.itoa) for itoa
    wstring.o(i._ZN6StringC1Eih) refers to wstring.o(i._ZN6StringaSEPKc) for String::operator =(const char*)
    wstring.o(i._ZN6StringC1Ejh) refers to wstring.o(i._ZN6String4initEv) for String::init()
    wstring.o(i._ZN6StringC1Ejh) refers to itoa.o(i.utoa) for utoa
    wstring.o(i._ZN6StringC1Ejh) refers to wstring.o(i._ZN6StringaSEPKc) for String::operator =(const char*)
    wstring.o(i._ZN6StringC1Elh) refers to wstring.o(i._ZN6String4initEv) for String::init()
    wstring.o(i._ZN6StringC1Elh) refers to itoa.o(i.ltoa) for ltoa
    wstring.o(i._ZN6StringC1Elh) refers to wstring.o(i._ZN6StringaSEPKc) for String::operator =(const char*)
    wstring.o(i._ZN6StringC1Emh) refers to wstring.o(i._ZN6String4initEv) for String::init()
    wstring.o(i._ZN6StringC1Emh) refers to itoa.o(i.ultoa) for ultoa
    wstring.o(i._ZN6StringC1Emh) refers to wstring.o(i._ZN6StringaSEPKc) for String::operator =(const char*)
    wstring.o(i._ZN6StringD1Ev) refers to mallocr.o(i.__free$realloc) for free
    wstring.o(i._ZN6StringaSEPKc) refers to strlen.o(.text) for strlen
    wstring.o(i._ZN6StringaSEPKc) refers to wstring.o(i._ZN6String4copyEPKcj) for String::copy(const char*, unsigned)
    wstring.o(i._ZN6StringaSEPKc) refers to wstring.o(i._ZN6String10invalidateEv) for String::invalidate()
    wstring.o(i._ZN6StringaSERKS_) refers to wstring.o(i._ZN6String4copyEPKcj) for String::copy(const char*, unsigned)
    wstring.o(i._ZN6StringaSERKS_) refers to wstring.o(i._ZN6String10invalidateEv) for String::invalidate()
    wstring.o(i._ZN6StringixEj) refers to wstring.o(.data) for .data
    wstring.o(i._ZNK6String10startsWithERKS_) refers to wstring.o(i._ZNK6String10startsWithERKS_j) for String::startsWith(const String&, unsigned) const
    wstring.o(i._ZNK6String10startsWithERKS_j) refers to strncmp.o(.text) for strncmp
    wstring.o(i._ZNK6String11lastIndexOfERKS_) refers to wstring.o(i._ZNK6String11lastIndexOfERKS_j) for String::lastIndexOf(const String&, unsigned) const
    wstring.o(i._ZNK6String11lastIndexOfERKS_j) refers to wstring.o(i._ZSt6strstrPcPKc) for std::strstr(char*, const char*)
    wstring.o(i._ZNK6String11lastIndexOfEc) refers to wstring.o(i._ZNK6String11lastIndexOfEcj) for String::lastIndexOf(char, unsigned) const
    wstring.o(i._ZNK6String11lastIndexOfEcj) refers to strrchr.o(.text) for strrchr
    wstring.o(i._ZNK6String16equalsIgnoreCaseERKS_) refers to tolower.o(.text) for tolower
    wstring.o(i._ZNK6String5toIntEv) refers to atol.o(.text) for atol
    wstring.o(i._ZNK6String6charAtEj) refers to wstring.o(i._ZNK6StringixEj) for String::operator [](unsigned) const
    wstring.o(i._ZNK6String6equalsEPKc) refers to strcmp.o(.text) for strcmp
    wstring.o(i._ZNK6String6equalsERKS_) refers to wstring.o(i._ZNK6String9compareToERKS_) for String::compareTo(const String&) const
    wstring.o(i._ZNK6String7indexOfERKS_) refers to wstring.o(i._ZNK6String7indexOfERKS_j) for String::indexOf(const String&, unsigned) const
    wstring.o(i._ZNK6String7indexOfERKS_j) refers to wstring.o(i._ZSt6strstrPcPKc) for std::strstr(char*, const char*)
    wstring.o(i._ZNK6String7indexOfEc) refers to wstring.o(i._ZNK6String7indexOfEcj) for String::indexOf(char, unsigned) const
    wstring.o(i._ZNK6String7indexOfEcj) refers to strchr.o(.text) for strchr
    wstring.o(i._ZNK6String7toFloatEv) refers to atof.o(i.atof) for atof
    wstring.o(i._ZNK6String7toFloatEv) refers to d2f.o(.text) for __aeabi_d2f
    wstring.o(i._ZNK6String8endsWithERKS_) refers to strcmp.o(.text) for strcmp
    wstring.o(i._ZNK6String8getBytesEPhjj) refers to strncpy.o(.text) for strncpy
    wstring.o(i._ZNK6String9compareToERKS_) refers to strcmp.o(.text) for strcmp
    wstring.o(i._ZNK6String9substringEjj) refers to wstring.o(i._ZN6StringC1EPKc) for String::String(const char*)
    wstring.o(i._ZNK6String9substringEjj) refers to wstring.o(i._ZN6StringaSEPKc) for String::operator =(const char*)
    wstring.o(i._ZNK6StringgeERKS_) refers to wstring.o(i._ZNK6String9compareToERKS_) for String::compareTo(const String&) const
    wstring.o(i._ZNK6StringgtERKS_) refers to wstring.o(i._ZNK6String9compareToERKS_) for String::compareTo(const String&) const
    wstring.o(i._ZNK6StringleERKS_) refers to wstring.o(i._ZNK6String9compareToERKS_) for String::compareTo(const String&) const
    wstring.o(i._ZNK6StringltERKS_) refers to wstring.o(i._ZNK6String9compareToERKS_) for String::compareTo(const String&) const
    wstring.o(i._ZplRK15StringSumHelperPKc) refers to strlen.o(.text) for strlen
    wstring.o(i._ZplRK15StringSumHelperPKc) refers to wstring.o(i._ZN6String6concatEPKcj) for String::concat(const char*, unsigned)
    wstring.o(i._ZplRK15StringSumHelperPKc) refers to wstring.o(i._ZN6String10invalidateEv) for String::invalidate()
    wstring.o(i._ZplRK15StringSumHelperRK6String) refers to wstring.o(i._ZN6String6concatEPKcj) for String::concat(const char*, unsigned)
    wstring.o(i._ZplRK15StringSumHelperRK6String) refers to wstring.o(i._ZN6String10invalidateEv) for String::invalidate()
    wstring.o(i._ZplRK15StringSumHelperc) refers to wstring.o(i._ZN6String6concatEc) for String::concat(char)
    wstring.o(i._ZplRK15StringSumHelperc) refers to wstring.o(i._ZN6String10invalidateEv) for String::invalidate()
    wstring.o(i._ZplRK15StringSumHelperd) refers to wstring.o(i._ZN6String6concatEd) for String::concat(double)
    wstring.o(i._ZplRK15StringSumHelperd) refers to wstring.o(i._ZN6String10invalidateEv) for String::invalidate()
    wstring.o(i._ZplRK15StringSumHelperf) refers to wstring.o(i._ZN6String6concatEf) for String::concat(float)
    wstring.o(i._ZplRK15StringSumHelperf) refers to wstring.o(i._ZN6String10invalidateEv) for String::invalidate()
    wstring.o(i._ZplRK15StringSumHelperh) refers to wstring.o(i._ZN6String6concatEh) for String::concat(unsigned char)
    wstring.o(i._ZplRK15StringSumHelperh) refers to wstring.o(i._ZN6String10invalidateEv) for String::invalidate()
    wstring.o(i._ZplRK15StringSumHelperi) refers to wstring.o(i._ZN6String6concatEi) for String::concat(int)
    wstring.o(i._ZplRK15StringSumHelperi) refers to wstring.o(i._ZN6String10invalidateEv) for String::invalidate()
    wstring.o(i._ZplRK15StringSumHelperj) refers to wstring.o(i._ZN6String6concatEj) for String::concat(unsigned)
    wstring.o(i._ZplRK15StringSumHelperj) refers to wstring.o(i._ZN6String10invalidateEv) for String::invalidate()
    wstring.o(i._ZplRK15StringSumHelperl) refers to wstring.o(i._ZN6String6concatEl) for String::concat(long)
    wstring.o(i._ZplRK15StringSumHelperl) refers to wstring.o(i._ZN6String10invalidateEv) for String::invalidate()
    wstring.o(i._ZplRK15StringSumHelperm) refers to wstring.o(i._ZN6String6concatEm) for String::concat(unsigned long)
    wstring.o(i._ZplRK15StringSumHelperm) refers to wstring.o(i._ZN6String10invalidateEv) for String::invalidate()
    wstring.o(.ARM.exidx) refers to wstring.o(i._ZN6String10invalidateEv) for i._ZN6String10invalidateEv
    wstring.o(.ARM.exidx) refers to wstring.o(i._ZN6String12changeBufferEj) for i._ZN6String12changeBufferEj
    wstring.o(.ARM.exidx) refers to wstring.o(i._ZN6String7reserveEj) for i._ZN6String7reserveEj
    wstring.o(.ARM.exidx) refers to wstring.o(i._ZN6String6concatEPKcj) for i._ZN6String6concatEPKcj
    wstring.o(.ARM.exidx) refers to wstring.o(i._ZplRK15StringSumHelperRK6String) for i._ZplRK15StringSumHelperRK6String
    wstring.o(.ARM.exidx) refers to wstring.o(i._ZplRK15StringSumHelperPKc) for i._ZplRK15StringSumHelperPKc
    wstring.o(.ARM.exidx) refers to wstring.o(i._ZN6String6concatEc) for i._ZN6String6concatEc
    wstring.o(.ARM.exidx) refers to wstring.o(i._ZplRK15StringSumHelperc) for i._ZplRK15StringSumHelperc
    wstring.o(.ARM.exidx) refers to wstring.o(i._ZN6String6concatEh) for i._ZN6String6concatEh
    wstring.o(.ARM.exidx) refers to wstring.o(i._ZplRK15StringSumHelperh) for i._ZplRK15StringSumHelperh
    wstring.o(.ARM.exidx) refers to wstring.o(i._ZN6String6concatEi) for i._ZN6String6concatEi
    wstring.o(.ARM.exidx) refers to wstring.o(i._ZplRK15StringSumHelperi) for i._ZplRK15StringSumHelperi
    wstring.o(.ARM.exidx) refers to wstring.o(i._ZN6String6concatEj) for i._ZN6String6concatEj
    wstring.o(.ARM.exidx) refers to wstring.o(i._ZplRK15StringSumHelperj) for i._ZplRK15StringSumHelperj
    wstring.o(.ARM.exidx) refers to wstring.o(i._ZN6String6concatEl) for i._ZN6String6concatEl
    wstring.o(.ARM.exidx) refers to wstring.o(i._ZplRK15StringSumHelperl) for i._ZplRK15StringSumHelperl
    wstring.o(.ARM.exidx) refers to wstring.o(i._ZN6String6concatEm) for i._ZN6String6concatEm
    wstring.o(.ARM.exidx) refers to wstring.o(i._ZplRK15StringSumHelperm) for i._ZplRK15StringSumHelperm
    wstring.o(.ARM.exidx) refers to wstring.o(i._ZN6String6concatEf) for i._ZN6String6concatEf
    wstring.o(.ARM.exidx) refers to wstring.o(i._ZplRK15StringSumHelperf) for i._ZplRK15StringSumHelperf
    wstring.o(.ARM.exidx) refers to wstring.o(i._ZN6String6concatEd) for i._ZN6String6concatEd
    wstring.o(.ARM.exidx) refers to wstring.o(i._ZplRK15StringSumHelperd) for i._ZplRK15StringSumHelperd
    wstring.o(.ARM.exidx) refers to wstring.o(i._ZN6String4copyEPKcj) for i._ZN6String4copyEPKcj
    wstring.o(.ARM.exidx) refers to wstring.o(i._ZN6StringC1EPKc) for i._ZN6StringC1EPKc
    wstring.o(.ARM.exidx) refers to wstring.o(i._ZN6StringaSERKS_) for i._ZN6StringaSERKS_
    wstring.o(.ARM.exidx) refers to wstring.o(i._ZN6StringC1ERKS_) for i._ZN6StringC1ERKS_
    wstring.o(.ARM.exidx) refers to wstring.o(i._ZN6StringaSEPKc) for i._ZN6StringaSEPKc
    wstring.o(.ARM.exidx) refers to wstring.o(i._ZN6StringC1Ec) for i._ZN6StringC1Ec
    wstring.o(.ARM.exidx) refers to wstring.o(i._ZN6StringC1Ehh) for i._ZN6StringC1Ehh
    wstring.o(.ARM.exidx) refers to wstring.o(i._ZN6StringC1Eih) for i._ZN6StringC1Eih
    wstring.o(.ARM.exidx) refers to wstring.o(i._ZN6StringC1Ejh) for i._ZN6StringC1Ejh
    wstring.o(.ARM.exidx) refers to wstring.o(i._ZN6StringC1Elh) for i._ZN6StringC1Elh
    wstring.o(.ARM.exidx) refers to wstring.o(i._ZN6StringC1Emh) for i._ZN6StringC1Emh
    wstring.o(.ARM.exidx) refers to wstring.o(i._ZN6StringC1Efh) for i._ZN6StringC1Efh
    wstring.o(.ARM.exidx) refers to wstring.o(i._ZN6StringC1Edh) for i._ZN6StringC1Edh
    wstring.o(.ARM.exidx) refers to wstring.o(i._ZN6StringD1Ev) for i._ZN6StringD1Ev
    wstring.o(.ARM.exidx) refers to wstring.o(i._ZN6String6concatERKS_) for i._ZN6String6concatERKS_
    wstring.o(.ARM.exidx) refers to wstring.o(i._ZN6String6concatEPKc) for i._ZN6String6concatEPKc
    wstring.o(.ARM.exidx) refers to wstring.o(i._ZNK6String9compareToERKS_) for i._ZNK6String9compareToERKS_
    wstring.o(.ARM.exidx) refers to wstring.o(i._ZNK6String6equalsERKS_) for i._ZNK6String6equalsERKS_
    wstring.o(.ARM.exidx) refers to wstring.o(i._ZNK6String6equalsEPKc) for i._ZNK6String6equalsEPKc
    wstring.o(.ARM.exidx) refers to wstring.o(i._ZNK6StringltERKS_) for i._ZNK6StringltERKS_
    wstring.o(.ARM.exidx) refers to wstring.o(i._ZNK6StringgtERKS_) for i._ZNK6StringgtERKS_
    wstring.o(.ARM.exidx) refers to wstring.o(i._ZNK6StringleERKS_) for i._ZNK6StringleERKS_
    wstring.o(.ARM.exidx) refers to wstring.o(i._ZNK6StringgeERKS_) for i._ZNK6StringgeERKS_
    wstring.o(.ARM.exidx) refers to wstring.o(i._ZNK6String16equalsIgnoreCaseERKS_) for i._ZNK6String16equalsIgnoreCaseERKS_
    wstring.o(.ARM.exidx) refers to wstring.o(i._ZNK6String10startsWithERKS_j) for i._ZNK6String10startsWithERKS_j
    wstring.o(.ARM.exidx) refers to wstring.o(i._ZNK6String10startsWithERKS_) for i._ZNK6String10startsWithERKS_
    wstring.o(.ARM.exidx) refers to wstring.o(i._ZNK6String8endsWithERKS_) for i._ZNK6String8endsWithERKS_
    wstring.o(.ARM.exidx) refers to wstring.o(i._ZNK6StringixEj) for i._ZNK6StringixEj
    wstring.o(.ARM.exidx) refers to wstring.o(i._ZNK6String6charAtEj) for i._ZNK6String6charAtEj
    wstring.o(.ARM.exidx) refers to wstring.o(i._ZN6String9setCharAtEjc) for i._ZN6String9setCharAtEjc
    wstring.o(.ARM.exidx) refers to wstring.o(i._ZN6StringixEj) for i._ZN6StringixEj
    wstring.o(.ARM.exidx) refers to wstring.o(i._ZNK6String8getBytesEPhjj) for i._ZNK6String8getBytesEPhjj
    wstring.o(.ARM.exidx) refers to wstring.o(i._ZNK6String7indexOfEcj) for i._ZNK6String7indexOfEcj
    wstring.o(.ARM.exidx) refers to wstring.o(i._ZNK6String7indexOfEc) for i._ZNK6String7indexOfEc
    wstring.o(.ARM.exidx) refers to wstring.o(i._ZNK6String7indexOfERKS_j) for i._ZNK6String7indexOfERKS_j
    wstring.o(.ARM.exidx) refers to wstring.o(i._ZNK6String7indexOfERKS_) for i._ZNK6String7indexOfERKS_
    wstring.o(.ARM.exidx) refers to wstring.o(i._ZNK6String11lastIndexOfEcj) for i._ZNK6String11lastIndexOfEcj
    wstring.o(.ARM.exidx) refers to wstring.o(i._ZNK6String11lastIndexOfEc) for i._ZNK6String11lastIndexOfEc
    wstring.o(.ARM.exidx) refers to wstring.o(i._ZNK6String11lastIndexOfERKS_j) for i._ZNK6String11lastIndexOfERKS_j
    wstring.o(.ARM.exidx) refers to wstring.o(i._ZNK6String11lastIndexOfERKS_) for i._ZNK6String11lastIndexOfERKS_
    wstring.o(.ARM.exidx) refers to wstring.o(i._ZNK6String9substringEjj) for i._ZNK6String9substringEjj
    wstring.o(.ARM.exidx) refers to wstring.o(i._ZN6String7replaceEcc) for i._ZN6String7replaceEcc
    wstring.o(.ARM.exidx) refers to wstring.o(i._ZN6String7replaceERKS_S1_) for i._ZN6String7replaceERKS_S1_
    wstring.o(.ARM.exidx) refers to wstring.o(i._ZN6String6removeEjj) for i._ZN6String6removeEjj
    wstring.o(.ARM.exidx) refers to wstring.o(i._ZN6String6removeEj) for i._ZN6String6removeEj
    wstring.o(.ARM.exidx) refers to wstring.o(i._ZN6String11toLowerCaseEv) for i._ZN6String11toLowerCaseEv
    wstring.o(.ARM.exidx) refers to wstring.o(i._ZN6String11toUpperCaseEv) for i._ZN6String11toUpperCaseEv
    wstring.o(.ARM.exidx) refers to wstring.o(i._ZN6String4trimEv) for i._ZN6String4trimEv
    wstring.o(.ARM.exidx) refers to wstring.o(i._ZNK6String5toIntEv) for i._ZNK6String5toIntEv
    wstring.o(.ARM.exidx) refers to wstring.o(i._ZNK6String7toFloatEv) for i._ZNK6String7toFloatEv
    wuart.o(i._Z10UART0_Stopv) refers to wuart.o(.data) for .data
    wuart.o(i._Z11UART0_Startjjj) refers to winterrupts.o(i.LinkInterrupt) for LinkInterrupt
    wuart.o(i._Z11UART0_Startjjj) refers to wuart.o(.data) for .data
    wuart.o(i._Z11UART0_Startjjj) refers to wuart.o(i._Z13UART0_handlerv) for UART0_handler()
    wuart.o(i._Z13UART0_handlerv) refers to uartclass.o(i._ZN9UARTClass10IrqHandlerEv) for UARTClass::IrqHandler()
    wuart.o(i._Z13UART0_handlerv) refers to wuart.o(.bss) for .bss
    wuart.o(i._Z18UART0_WaitTXFinishv) refers to wuart.o(.data) for .data
    wuart.o(i._Z8UART0_RXv) refers to wuart.o(i._Z18UART0_CheckRXErrorv) for UART0_CheckRXError()
    wuart.o(i._Z8UART0_TXh) refers to wuart.o(.data) for .data
    wuart.o(i.__sti___9_wuart_cpp_6f152d4a) refers to ringbuffer.o(i._ZN10RingBufferC1Ev) for RingBuffer::RingBuffer()
    wuart.o(i.__sti___9_wuart_cpp_6f152d4a) refers to uartclass.o(i._ZN9UARTClassC1EP10RingBuffer) for UARTClass::UARTClass(RingBuffer*)
    wuart.o(i.__sti___9_wuart_cpp_6f152d4a) refers to wuart.o(.bss) for .bss
    wuart.o(.ARM.exidx) refers to wuart.o(i._Z17UART0_ReadRXStatev) for i._Z17UART0_ReadRXStatev
    wuart.o(.ARM.exidx) refers to wuart.o(i._Z18UART0_ClearRXStatev) for i._Z18UART0_ClearRXStatev
    wuart.o(.ARM.exidx) refers to wuart.o(i._Z16UART0_ReadRXDatev) for i._Z16UART0_ReadRXDatev
    wuart.o(.ARM.exidx) refers to wuart.o(i._Z18UART0_WaitTXFinishv) for i._Z18UART0_WaitTXFinishv
    wuart.o(.ARM.exidx) refers to wuart.o(i._Z13UART0_handlerv) for i._Z13UART0_handlerv
    wuart.o(.ARM.exidx) refers to wuart.o(i._Z11UART0_Startjjj) for i._Z11UART0_Startjjj
    wuart.o(.ARM.exidx) refers to wuart.o(i._Z10UART0_Stopv) for i._Z10UART0_Stopv
    wuart.o(.ARM.exidx) refers to wuart.o(i._Z8UART0_TXh) for i._Z8UART0_TXh
    wuart.o(.ARM.exidx) refers to wuart.o(i._Z18UART0_CheckRXErrorv) for i._Z18UART0_CheckRXErrorv
    wuart.o(.ARM.exidx) refers to wuart.o(i._Z8UART0_RXv) for i._Z8UART0_RXv
    wuart.o(.ARM.exidx) refers to wuart.o(i.__sti___9_wuart_cpp_6f152d4a) for i.__sti___9_wuart_cpp_6f152d4a
    wuart.o(.init_array) refers to wuart.o(i.__sti___9_wuart_cpp_6f152d4a) for __sti___9_wuart_cpp_6f152d4a
    wuart.o(.init_array) refers to cpp_init.o(.text) for __cpp_initialize__aeabi_
    dtoa.o(i.dtoa) refers to printfa.o(i.__0sprintf) for __2sprintf
    dtoa.o(.ARM.exidx) refers to dtoa.o(i.dtoa) for i.dtoa
    app_error_check.o(.ARM.exidx) refers to app_error_check.o(i._Z17app_error_handlerjjPKh) for i._Z17app_error_handlerjjPKh
    pin_transform.o(i.Pin_nRF51822_to_Arduino) refers to wiring_digital.o(i.__ARM_common_switch8) for __ARM_common_switch8
    pin_transform.o(.ARM.exidx) refers to pin_transform.o(i.Pin_nRF51822_to_Arduino) for i.Pin_nRF51822_to_Arduino
    variant.o(i.init) refers to variant.o(i.lfclk_config) for lfclk_config
    variant.o(.ARM.exidx) refers to variant.o(i.lfclk_config) for i.lfclk_config
    variant.o(.ARM.exidx) refers to variant.o(i.init) for i.init
    arm_startup_nrf51.o(RESET) refers to arm_startup_nrf51.o(STACK) for __initial_sp
    arm_startup_nrf51.o(RESET) refers to arm_startup_nrf51.o(.text) for Reset_Handler
    arm_startup_nrf51.o(.text) refers to system_nrf51.o(i.SystemInit) for SystemInit
    arm_startup_nrf51.o(.text) refers to entry.o(.ARM.Collect$$$$00000000) for __main
    system_nrf51.o(i.SystemCoreClockUpdate) refers to system_nrf51.o(.data) for .data
    system_nrf51.o(i.SystemInit) refers to system_nrf51.o(i._Z33is_manual_peripheral_setup_neededv) for is_manual_peripheral_setup_needed()
    system_nrf51.o(.ARM.exidx) refers to system_nrf51.o(i.SystemCoreClockUpdate) for i.SystemCoreClockUpdate
    system_nrf51.o(.ARM.exidx) refers to system_nrf51.o(i.SystemInit) for i.SystemInit
    system_nrf51.o(.ARM.exidx) refers to system_nrf51.o(i._Z33is_manual_peripheral_setup_neededv) for i._Z33is_manual_peripheral_setup_neededv
    nrf_delay.o(i._Z12nrf_delay_msj) refers to nrf_delay.o(.emb_text) for __asm___11_nrf_delay_c_12821de1___Z12nrf_delay_usj
    nrf_delay.o(.ARM.exidx) refers to nrf_delay.o(i._Z12nrf_delay_msj) for i._Z12nrf_delay_msj
    app_error.o(.ARM.exidx) refers to app_error.o(i._Z17app_error_handlerjjPKh) for i._Z17app_error_handlerjjPKh
    app_scheduler.o(i._Z14app_sched_initttPv) refers to app_scheduler.o(.data) for .data
    app_scheduler.o(i._Z17app_sched_executev) refers to app_scheduler.o(i._Z19app_sched_event_getPPvPtPPFvS_tE) for app_sched_event_get(void**, unsigned short*, void(**)(void*, unsigned short))
    app_scheduler.o(i._Z19app_sched_event_getPPvPtPPFvS_tE) refers to app_scheduler.o(.data) for .data
    app_scheduler.o(i._Z19app_sched_event_putPvtPFvS_tE) refers to app_util_platform.o(i._Z21critical_region_enterv) for critical_region_enter()
    app_scheduler.o(i._Z19app_sched_event_putPvtPFvS_tE) refers to app_util_platform.o(i._Z20critical_region_exitv) for critical_region_exit()
    app_scheduler.o(i._Z19app_sched_event_putPvtPFvS_tE) refers to memmovea.o(.text) for __aeabi_memcpy
    app_scheduler.o(i._Z19app_sched_event_putPvtPFvS_tE) refers to app_scheduler.o(.data) for .data
    app_scheduler.o(.ARM.exidx) refers to app_scheduler.o(i._Z14app_sched_initttPv) for i._Z14app_sched_initttPv
    app_scheduler.o(.ARM.exidx) refers to app_scheduler.o(i._Z19app_sched_event_putPvtPFvS_tE) for i._Z19app_sched_event_putPvtPFvS_tE
    app_scheduler.o(.ARM.exidx) refers to app_scheduler.o(i._Z17app_sched_executev) for i._Z17app_sched_executev
    app_scheduler.o(.ARM.exidx) refers to app_scheduler.o(i._Z19app_sched_event_getPPvPtPPFvS_tE) for i._Z19app_sched_event_getPPvPtPPFvS_tE
    app_timer.o(i._Z14app_timer_initjhhPvPFjPFvS_ES_E) refers to app_timer.o(i._Z9rtc1_stopv) for rtc1_stop()
    app_timer.o(i._Z14app_timer_initjhhPvPFjPFvS_ES_E) refers to app_timer.o(i._Z16NVIC_SetPriority9IRQn_Typej) for NVIC_SetPriority(IRQn_Type, unsigned)
    app_timer.o(i._Z14app_timer_initjhhPvPFjPFvS_ES_E) refers to app_timer.o(.data) for .data
    app_timer.o(i._Z14app_timer_stopj) refers to app_timer.o(i._Z11user_id_getv) for user_id_get()
    app_timer.o(i._Z14app_timer_stopj) refers to app_timer.o(i._Z13user_op_allocP12timer_user_tPj) for user_op_alloc(timer_user_t*, unsigned*)
    app_timer.o(i._Z14app_timer_stopj) refers to app_timer.o(i._Z24timer_list_handler_schedv) for timer_list_handler_sched()
    app_timer.o(i._Z14app_timer_stopj) refers to app_timer.o(.data) for .data
    app_timer.o(i._Z15RTC1_IRQHandlerv) refers to app_timer.o(i._Z20timer_timeouts_checkv) for timer_timeouts_check()
    app_timer.o(i._Z15SWI0_IRQHandlerv) refers to app_timer.o(i._Z21elapsed_ticks_acquirePj) for elapsed_ticks_acquire(unsigned*)
    app_timer.o(i._Z15SWI0_IRQHandlerv) refers to app_timer.o(i._Z22list_deletions_handlerv) for list_deletions_handler()
    app_timer.o(i._Z15SWI0_IRQHandlerv) refers to app_timer.o(i._Z22expired_timers_handlerjjPj) for expired_timers_handler(unsigned, unsigned, unsigned*)
    app_timer.o(i._Z15SWI0_IRQHandlerv) refers to app_timer.o(i._Z23list_insertions_handlerj) for list_insertions_handler(unsigned)
    app_timer.o(i._Z15SWI0_IRQHandlerv) refers to app_timer.o(i._Z18compare_reg_updatej) for compare_reg_update(unsigned)
    app_timer.o(i._Z15SWI0_IRQHandlerv) refers to app_timer.o(.data) for .data
    app_timer.o(i._Z15app_timer_startjjPv) refers to app_timer.o(i._Z11user_id_getv) for user_id_get()
    app_timer.o(i._Z15app_timer_startjjPv) refers to app_timer.o(i._Z13user_op_allocP12timer_user_tPj) for user_op_alloc(timer_user_t*, unsigned*)
    app_timer.o(i._Z15app_timer_startjjPv) refers to app_timer.o(i._Z24timer_list_handler_schedv) for timer_list_handler_sched()
    app_timer.o(i._Z15app_timer_startjjPv) refers to app_timer.o(.data) for .data
    app_timer.o(i._Z16app_timer_createPj16app_timer_mode_tPFvPvE) refers to app_timer.o(.data) for .data
    app_timer.o(i._Z17timer_list_insertj) refers to app_timer.o(.data) for .data
    app_timer.o(i._Z17timer_list_removej) refers to app_timer.o(.data) for .data
    app_timer.o(i._Z18app_timer_stop_allv) refers to app_timer.o(i._Z11user_id_getv) for user_id_get()
    app_timer.o(i._Z18app_timer_stop_allv) refers to app_timer.o(i._Z13user_op_allocP12timer_user_tPj) for user_op_alloc(timer_user_t*, unsigned*)
    app_timer.o(i._Z18app_timer_stop_allv) refers to app_timer.o(i._Z24timer_list_handler_schedv) for timer_list_handler_sched()
    app_timer.o(i._Z18app_timer_stop_allv) refers to app_timer.o(.data) for .data
    app_timer.o(i._Z18compare_reg_updatej) refers to app_timer.o(.emb_text) for __asm___11_app_timer_c_51bffd29___Z12nrf_delay_usj
    app_timer.o(i._Z18compare_reg_updatej) refers to app_timer.o(i._Z9rtc1_stopv) for rtc1_stop()
    app_timer.o(i._Z18compare_reg_updatej) refers to app_timer.o(.data) for .data
    app_timer.o(i._Z20timer_timeouts_checkv) refers to app_error_check.o(i._Z17app_error_handlerjjPKh) for app_error_handler(unsigned, unsigned, const unsigned char*)
    app_timer.o(i._Z20timer_timeouts_checkv) refers to app_timer.o(i._Z24timer_list_handler_schedv) for timer_list_handler_sched()
    app_timer.o(i._Z20timer_timeouts_checkv) refers to app_timer.o(.data) for .data
    app_timer.o(i._Z21elapsed_ticks_acquirePj) refers to app_timer.o(.data) for .data
    app_timer.o(i._Z22expired_timers_handlerjjPj) refers to app_timer.o(.data) for .data
    app_timer.o(i._Z22list_deletions_handlerv) refers to app_timer.o(i._Z17timer_list_removej) for timer_list_remove(unsigned)
    app_timer.o(i._Z22list_deletions_handlerv) refers to app_timer.o(.data) for .data
    app_timer.o(i._Z23list_insertions_handlerj) refers to app_timer.o(i._Z17timer_list_insertj) for timer_list_insert(unsigned)
    app_timer.o(i._Z23list_insertions_handlerj) refers to app_timer.o(.data) for .data
    app_timer.o(i._Z9rtc1_stopv) refers to app_timer.o(.emb_text) for __asm___11_app_timer_c_51bffd29___Z12nrf_delay_usj
    app_timer.o(i._Z9rtc1_stopv) refers to app_timer.o(.data) for .data
    app_timer.o(.ARM.exidx) refers to app_timer.o(i._Z16NVIC_SetPriority9IRQn_Typej) for i._Z16NVIC_SetPriority9IRQn_Typej
    app_timer.o(.ARM.exidx) refers to app_timer.o(i._Z9rtc1_stopv) for i._Z9rtc1_stopv
    app_timer.o(.ARM.exidx) refers to app_timer.o(i._Z17timer_list_insertj) for i._Z17timer_list_insertj
    app_timer.o(.ARM.exidx) refers to app_timer.o(i._Z17timer_list_removej) for i._Z17timer_list_removej
    app_timer.o(.ARM.exidx) refers to app_timer.o(i._Z20timer_timeouts_checkv) for i._Z20timer_timeouts_checkv
    app_timer.o(.ARM.exidx) refers to app_timer.o(i._Z23list_insertions_handlerj) for i._Z23list_insertions_handlerj
    app_timer.o(.ARM.exidx) refers to app_timer.o(i._Z15RTC1_IRQHandlerv) for i._Z15RTC1_IRQHandlerv
    app_timer.o(.ARM.exidx) refers to app_timer.o(i._Z15SWI0_IRQHandlerv) for i._Z15SWI0_IRQHandlerv
    app_timer.o(.ARM.exidx) refers to app_timer.o(i._Z14app_timer_initjhhPvPFjPFvS_ES_E) for i._Z14app_timer_initjhhPvPFjPFvS_ES_E
    app_timer.o(.ARM.exidx) refers to app_timer.o(i._Z16app_timer_createPj16app_timer_mode_tPFvPvE) for i._Z16app_timer_createPj16app_timer_mode_tPFvPvE
    app_timer.o(.ARM.exidx) refers to app_timer.o(i._Z11user_id_getv) for i._Z11user_id_getv
    app_timer.o(.ARM.exidx) refers to app_timer.o(i._Z15app_timer_startjjPv) for i._Z15app_timer_startjjPv
    app_timer.o(.ARM.exidx) refers to app_timer.o(i._Z14app_timer_stopj) for i._Z14app_timer_stopj
    app_timer.o(.ARM.exidx) refers to app_timer.o(i._Z18app_timer_stop_allv) for i._Z18app_timer_stop_allv
    app_timer.o(.ARM.exidx) refers to app_timer.o(i._Z17app_timer_cnt_getPj) for i._Z17app_timer_cnt_getPj
    app_timer.o(.ARM.exidx) refers to app_timer.o(i._Z26app_timer_cnt_diff_computejjPj) for i._Z26app_timer_cnt_diff_computejjPj
    app_timer.o(.ARM.exidx) refers to app_timer.o(i._Z24timer_list_handler_schedv) for i._Z24timer_list_handler_schedv
    app_timer.o(.ARM.exidx) refers to app_timer.o(i._Z21elapsed_ticks_acquirePj) for i._Z21elapsed_ticks_acquirePj
    app_timer.o(.ARM.exidx) refers to app_timer.o(i._Z22list_deletions_handlerv) for i._Z22list_deletions_handlerv
    app_timer.o(.ARM.exidx) refers to app_timer.o(i._Z22expired_timers_handlerjjPj) for i._Z22expired_timers_handlerjjPj
    app_timer.o(.ARM.exidx) refers to app_timer.o(i._Z18compare_reg_updatej) for i._Z18compare_reg_updatej
    app_timer.o(.ARM.exidx) refers to app_timer.o(i._Z13user_op_allocP12timer_user_tPj) for i._Z13user_op_allocP12timer_user_tPj
    app_util_platform.o(i._Z20critical_region_exitv) refers to app_util_platform.o(.data) for .data
    app_util_platform.o(i._Z21critical_region_enterv) refers to app_util_platform.o(.data) for .data
    app_util_platform.o(.ARM.exidx) refers to app_util_platform.o(i._Z21critical_region_enterv) for i._Z21critical_region_enterv
    app_util_platform.o(.ARM.exidx) refers to app_util_platform.o(i._Z20critical_region_exitv) for i._Z20critical_region_exitv
    lib_rtti_impl.o(i._ZN10__cxxabiv116__enum_type_infoD0Ev) refers to lib_rtti_impl.o(i._ZN10__cxxabiv116__enum_type_infoD1Ev) for __cxxabiv1::__enum_type_info::~__enum_type_info()
    lib_rtti_impl.o(i._ZN10__cxxabiv117__array_type_infoD0Ev) refers to lib_rtti_impl.o(i._ZN10__cxxabiv117__array_type_infoD1Ev) for __cxxabiv1::__array_type_info::~__array_type_info()
    lib_rtti_impl.o(i._ZN10__cxxabiv117__class_type_infoD0Ev) refers to lib_rtti_impl.o(i._ZN10__cxxabiv117__class_type_infoD1Ev) for __cxxabiv1::__class_type_info::~__class_type_info()
    lib_rtti_impl.o(i._ZN10__cxxabiv117__pbase_type_infoD0Ev) refers to lib_rtti_impl.o(i._ZN10__cxxabiv117__pbase_type_infoD1Ev) for __cxxabiv1::__pbase_type_info::~__pbase_type_info()
    lib_rtti_impl.o(i._ZN10__cxxabiv119__pointer_type_infoD0Ev) refers to lib_rtti_impl.o(i._ZN10__cxxabiv119__pointer_type_infoD1Ev) for __cxxabiv1::__pointer_type_info::~__pointer_type_info()
    lib_rtti_impl.o(i._ZN10__cxxabiv119__pointer_type_infoD1Ev) refers to lib_rtti_impl.o(i._ZN10__cxxabiv117__pbase_type_infoD1Ev) for __cxxabiv1::__pbase_type_info::~__pbase_type_info()
    lib_rtti_impl.o(i._ZN10__cxxabiv120__function_type_infoD0Ev) refers to lib_rtti_impl.o(i._ZN10__cxxabiv120__function_type_infoD1Ev) for __cxxabiv1::__function_type_info::~__function_type_info()
    lib_rtti_impl.o(i._ZN10__cxxabiv120__si_class_type_infoD0Ev) refers to lib_rtti_impl.o(i._ZN10__cxxabiv120__si_class_type_infoD1Ev) for __cxxabiv1::__si_class_type_info::~__si_class_type_info()
    lib_rtti_impl.o(i._ZN10__cxxabiv120__si_class_type_infoD1Ev) refers to lib_rtti_impl.o(i._ZN10__cxxabiv117__class_type_infoD1Ev) for __cxxabiv1::__class_type_info::~__class_type_info()
    lib_rtti_impl.o(i._ZN10__cxxabiv121__vmi_class_type_infoD0Ev) refers to lib_rtti_impl.o(i._ZN10__cxxabiv121__vmi_class_type_infoD1Ev) for __cxxabiv1::__vmi_class_type_info::~__vmi_class_type_info()
    lib_rtti_impl.o(i._ZN10__cxxabiv121__vmi_class_type_infoD1Ev) refers to lib_rtti_impl.o(i._ZN10__cxxabiv117__class_type_infoD1Ev) for __cxxabiv1::__class_type_info::~__class_type_info()
    lib_rtti_impl.o(i._ZN10__cxxabiv123__fundamental_type_infoD0Ev) refers to lib_rtti_impl.o(i._ZN10__cxxabiv123__fundamental_type_infoD1Ev) for __cxxabiv1::__fundamental_type_info::~__fundamental_type_info()
    lib_rtti_impl.o(i._ZN10__cxxabiv129__pointer_to_member_type_infoD0Ev) refers to lib_rtti_impl.o(i._ZN10__cxxabiv129__pointer_to_member_type_infoD1Ev) for __cxxabiv1::__pointer_to_member_type_info::~__pointer_to_member_type_info()
    lib_rtti_impl.o(i._ZN10__cxxabiv129__pointer_to_member_type_infoD1Ev) refers to lib_rtti_impl.o(i._ZN10__cxxabiv117__pbase_type_infoD1Ev) for __cxxabiv1::__pbase_type_info::~__pbase_type_info()
    lib_rtti_impl.o(.ARM.exidx) refers to lib_rtti_impl.o(i._ZN10__cxxabiv123__fundamental_type_infoD1Ev) for i._ZN10__cxxabiv123__fundamental_type_infoD1Ev
    lib_rtti_impl.o(.ARM.exidx) refers to lib_rtti_impl.o(i._ZN10__cxxabiv123__fundamental_type_infoD0Ev) for i._ZN10__cxxabiv123__fundamental_type_infoD0Ev
    lib_rtti_impl.o(.ARM.exidx) refers to lib_rtti_impl.o(i._ZN10__cxxabiv117__array_type_infoD1Ev) for i._ZN10__cxxabiv117__array_type_infoD1Ev
    lib_rtti_impl.o(.ARM.exidx) refers to lib_rtti_impl.o(i._ZN10__cxxabiv117__array_type_infoD0Ev) for i._ZN10__cxxabiv117__array_type_infoD0Ev
    lib_rtti_impl.o(.ARM.exidx) refers to lib_rtti_impl.o(i._ZN10__cxxabiv120__function_type_infoD1Ev) for i._ZN10__cxxabiv120__function_type_infoD1Ev
    lib_rtti_impl.o(.ARM.exidx) refers to lib_rtti_impl.o(i._ZN10__cxxabiv120__function_type_infoD0Ev) for i._ZN10__cxxabiv120__function_type_infoD0Ev
    lib_rtti_impl.o(.ARM.exidx) refers to lib_rtti_impl.o(i._ZN10__cxxabiv116__enum_type_infoD1Ev) for i._ZN10__cxxabiv116__enum_type_infoD1Ev
    lib_rtti_impl.o(.ARM.exidx) refers to lib_rtti_impl.o(i._ZN10__cxxabiv116__enum_type_infoD0Ev) for i._ZN10__cxxabiv116__enum_type_infoD0Ev
    lib_rtti_impl.o(.ARM.exidx) refers to lib_rtti_impl.o(i._ZN10__cxxabiv117__class_type_infoD1Ev) for i._ZN10__cxxabiv117__class_type_infoD1Ev
    lib_rtti_impl.o(.ARM.exidx) refers to lib_rtti_impl.o(i._ZN10__cxxabiv117__class_type_infoD0Ev) for i._ZN10__cxxabiv117__class_type_infoD0Ev
    lib_rtti_impl.o(.ARM.exidx) refers to lib_rtti_impl.o(i._ZN10__cxxabiv120__si_class_type_infoD1Ev) for i._ZN10__cxxabiv120__si_class_type_infoD1Ev
    lib_rtti_impl.o(.ARM.exidx) refers to lib_rtti_impl.o(i._ZN10__cxxabiv120__si_class_type_infoD0Ev) for i._ZN10__cxxabiv120__si_class_type_infoD0Ev
    lib_rtti_impl.o(.ARM.exidx) refers to lib_rtti_impl.o(i._ZN10__cxxabiv121__vmi_class_type_infoD1Ev) for i._ZN10__cxxabiv121__vmi_class_type_infoD1Ev
    lib_rtti_impl.o(.ARM.exidx) refers to lib_rtti_impl.o(i._ZN10__cxxabiv121__vmi_class_type_infoD0Ev) for i._ZN10__cxxabiv121__vmi_class_type_infoD0Ev
    lib_rtti_impl.o(.ARM.exidx) refers to lib_rtti_impl.o(i._ZN10__cxxabiv117__pbase_type_infoD1Ev) for i._ZN10__cxxabiv117__pbase_type_infoD1Ev
    lib_rtti_impl.o(.ARM.exidx) refers to lib_rtti_impl.o(i._ZN10__cxxabiv117__pbase_type_infoD0Ev) for i._ZN10__cxxabiv117__pbase_type_infoD0Ev
    lib_rtti_impl.o(.ARM.exidx) refers to lib_rtti_impl.o(i._ZN10__cxxabiv119__pointer_type_infoD1Ev) for i._ZN10__cxxabiv119__pointer_type_infoD1Ev
    lib_rtti_impl.o(.ARM.exidx) refers to lib_rtti_impl.o(i._ZN10__cxxabiv119__pointer_type_infoD0Ev) for i._ZN10__cxxabiv119__pointer_type_infoD0Ev
    lib_rtti_impl.o(.ARM.exidx) refers to lib_rtti_impl.o(i._ZN10__cxxabiv129__pointer_to_member_type_infoD1Ev) for i._ZN10__cxxabiv129__pointer_to_member_type_infoD1Ev
    lib_rtti_impl.o(.ARM.exidx) refers to lib_rtti_impl.o(i._ZN10__cxxabiv129__pointer_to_member_type_infoD0Ev) for i._ZN10__cxxabiv129__pointer_to_member_type_infoD0Ev
    atof.o(i.__softfp_atof) refers (Special) to iusefp.o(.text) for __I$use$fp
    atof.o(i.__softfp_atof) refers to errno.o(i.__read_errno) for __read_errno
    atof.o(i.__softfp_atof) refers to strtod.o(.text) for __strtod_int
    atof.o(i.__softfp_atof) refers to errno.o(i.__set_errno) for __set_errno
    atof.o(i.atof) refers (Special) to iusefp.o(.text) for __I$use$fp
    atof.o(i.atof) refers to errno.o(i.__read_errno) for __read_errno
    atof.o(i.atof) refers to strtod.o(.text) for __strtod_int
    atof.o(i.atof) refers to errno.o(i.__set_errno) for __set_errno
    powf.o(i.__softfp_powf) refers (Special) to iusefp.o(.text) for __I$use$fp
    powf.o(i.__softfp_powf) refers to powf.o(i.powf) for powf
    powf.o(i.powf) refers (Special) to iusefp.o(.text) for __I$use$fp
    powf.o(i.powf) refers to fflti.o(.text) for __aeabi_i2f
    powf.o(i.powf) refers to fscalb.o(.text) for __ARM_scalbnf
    powf.o(i.powf) refers to fadd.o(.text) for __aeabi_fadd
    powf.o(i.powf) refers to fdiv.o(.text) for __aeabi_fdiv
    powf.o(i.powf) refers to fmul.o(.text) for __aeabi_fmul
    powf.o(i.powf) refers to ffixir.o(.text) for _ffix_r
    powf.o(i.powf) refers to fpclassifyf.o(i.__ARM_fpclassifyf) for __ARM_fpclassifyf
    powf.o(i.powf) refers to funder.o(i.__mathlib_flt_underflow) for __mathlib_flt_underflow
    powf.o(i.powf) refers to errno.o(i.__set_errno) for __set_errno
    powf.o(i.powf) refers to funder.o(i.__mathlib_flt_overflow) for __mathlib_flt_overflow
    powf.o(i.powf) refers to funder.o(i.__mathlib_flt_invalid) for __mathlib_flt_invalid
    powf.o(i.powf) refers to powf.o(.constdata) for .constdata
    powf.o(i.powf) refers to funder.o(i.__mathlib_flt_infnan2) for __mathlib_flt_infnan2
    powf.o(i.powf) refers to funder.o(i.__mathlib_flt_divzero) for __mathlib_flt_divzero
    powf.o(.constdata) refers (Special) to iusefp.o(.text) for __I$use$fp
    powf_x.o(i.____softfp_powf$lsc) refers (Special) to iusefp.o(.text) for __I$use$fp
    powf_x.o(i.____softfp_powf$lsc) refers to powf_x.o(i.__powf$lsc) for __powf$lsc
    powf_x.o(i.__powf$lsc) refers (Special) to iusefp.o(.text) for __I$use$fp
    powf_x.o(i.__powf$lsc) refers to fflti.o(.text) for __aeabi_i2f
    powf_x.o(i.__powf$lsc) refers to fscalb.o(.text) for __ARM_scalbnf
    powf_x.o(i.__powf$lsc) refers to fadd.o(.text) for __aeabi_fadd
    powf_x.o(i.__powf$lsc) refers to fdiv.o(.text) for __aeabi_fdiv
    powf_x.o(i.__powf$lsc) refers to fmul.o(.text) for __aeabi_fmul
    powf_x.o(i.__powf$lsc) refers to ffixir.o(.text) for _ffix_r
    powf_x.o(i.__powf$lsc) refers to fpstat.o(.text) for __ieee_status
    powf_x.o(i.__powf$lsc) refers to errno.o(i.__set_errno) for __set_errno
    powf_x.o(i.__powf$lsc) refers to funder.o(i.__mathlib_flt_infnan2) for __mathlib_flt_infnan2
    powf_x.o(i.__powf$lsc) refers to powf_x.o(.constdata) for .constdata
    powf_x.o(.constdata) refers (Special) to iusefp.o(.text) for __I$use$fp
    entry.o(.ARM.Collect$$$$00000000) refers (Special) to entry10a.o(.ARM.Collect$$$$0000000D) for __rt_final_cpp
    entry.o(.ARM.Collect$$$$00000000) refers (Special) to entry11a.o(.ARM.Collect$$$$0000000F) for __rt_final_exit
    entry.o(.ARM.Collect$$$$00000000) refers (Special) to entry7b.o(.ARM.Collect$$$$00000008) for _main_clock
    entry.o(.ARM.Collect$$$$00000000) refers (Special) to entry8b.o(.ARM.Collect$$$$0000000A) for _main_cpp_init
    entry.o(.ARM.Collect$$$$00000000) refers (Special) to entry9a.o(.ARM.Collect$$$$0000000B) for _main_init
    entry.o(.ARM.Collect$$$$00000000) refers (Special) to entry5.o(.ARM.Collect$$$$00000004) for _main_scatterload
    entry.o(.ARM.Collect$$$$00000000) refers (Special) to entry2.o(.ARM.Collect$$$$00000001) for _main_stk
    idiv.o(.text) refers to uidiv.o(.text) for __aeabi_uidivmod
    llmul.o(.text) refers to llshl.o(.text) for __aeabi_llsl
    ctype_o.o(.text) refers to ctype_o.o(.constdata) for .constdata
    ctype_o.o(.constdata) refers to ctype_o.o(.constdata) for __ctype_table
    isalnum_o.o(.text) refers to ctype_o.o(.text) for __rt_ctype_table
    isalpha_o.o(.text) refers to ctype_o.o(.text) for __rt_ctype_table
    isblank_o.o(.text) refers to ctype_o.o(.constdata) for __ctype_table
    iscntrl_o.o(.text) refers to ctype_o.o(.text) for __rt_ctype_table
    isdigit_o.o(.text) refers to ctype_o.o(.text) for __rt_ctype_table
    isgraph_o.o(.text) refers to ctype_o.o(.text) for __rt_ctype_table
    islower_o.o(.text) refers to ctype_o.o(.text) for __rt_ctype_table
    isprint_o.o(.text) refers to ctype_o.o(.text) for __rt_ctype_table
    ispunct_o.o(.text) refers to ctype_o.o(.text) for __rt_ctype_table
    isspace_o.o(.text) refers to ctype_o.o(.text) for __rt_ctype_table
    isupper_o.o(.text) refers to ctype_o.o(.text) for __rt_ctype_table
    isxdigit_o.o(.text) refers to ctype_o.o(.text) for __rt_ctype_table
    rand.o(.text) refers to rand.o(.data) for .data
    printfb.o(i.__0fprintf$bare) refers to printfb.o(i._printf_core) for _printf_core
    printfb.o(i.__0fprintf$bare) refers to fputc.o(i.fputc) for fputc
    printfb.o(i.__0printf$bare) refers to printfb.o(i._printf_core) for _printf_core
    printfb.o(i.__0printf$bare) refers to fputc.o(i.fputc) for fputc
    printfb.o(i.__0printf$bare) refers to stdout.o(.data) for __stdout
    printfb.o(i.__0snprintf$bare) refers to printfb.o(i._printf_core) for _printf_core
    printfb.o(i.__0snprintf$bare) refers to printfb.o(i._snputc) for _snputc
    printfb.o(i.__0sprintf$bare) refers to printfb.o(i._printf_core) for _printf_core
    printfb.o(i.__0sprintf$bare) refers to printfb.o(i._sputc) for _sputc
    printfb.o(i.__0vfprintf$bare) refers to printfb.o(i._printf_core) for _printf_core
    printfb.o(i.__0vfprintf$bare) refers to fputc.o(i.fputc) for fputc
    printfb.o(i.__0vprintf$bare) refers to printfb.o(i._printf_core) for _printf_core
    printfb.o(i.__0vprintf$bare) refers to fputc.o(i.fputc) for fputc
    printfb.o(i.__0vprintf$bare) refers to stdout.o(.data) for __stdout
    printfb.o(i.__0vsnprintf$bare) refers to printfb.o(i._printf_core) for _printf_core
    printfb.o(i.__0vsnprintf$bare) refers to printfb.o(i._snputc) for _snputc
    printfb.o(i.__0vsprintf$bare) refers to printfb.o(i._printf_core) for _printf_core
    printfb.o(i.__0vsprintf$bare) refers to printfb.o(i._sputc) for _sputc
    printf0.o(i.__0fprintf$0) refers to printf0.o(i._printf_core) for _printf_core
    printf0.o(i.__0fprintf$0) refers to fputc.o(i.fputc) for fputc
    printf0.o(i.__0printf$0) refers to printf0.o(i._printf_core) for _printf_core
    printf0.o(i.__0printf$0) refers to fputc.o(i.fputc) for fputc
    printf0.o(i.__0printf$0) refers to stdout.o(.data) for __stdout
    printf0.o(i.__0snprintf$0) refers to printf0.o(i._printf_core) for _printf_core
    printf0.o(i.__0snprintf$0) refers to printf0.o(i._snputc) for _snputc
    printf0.o(i.__0sprintf$0) refers to printf0.o(i._printf_core) for _printf_core
    printf0.o(i.__0sprintf$0) refers to printf0.o(i._sputc) for _sputc
    printf0.o(i.__0vfprintf$0) refers to printf0.o(i._printf_core) for _printf_core
    printf0.o(i.__0vfprintf$0) refers to fputc.o(i.fputc) for fputc
    printf0.o(i.__0vprintf$0) refers to printf0.o(i._printf_core) for _printf_core
    printf0.o(i.__0vprintf$0) refers to fputc.o(i.fputc) for fputc
    printf0.o(i.__0vprintf$0) refers to stdout.o(.data) for __stdout
    printf0.o(i.__0vsnprintf$0) refers to printf0.o(i._printf_core) for _printf_core
    printf0.o(i.__0vsnprintf$0) refers to printf0.o(i._snputc) for _snputc
    printf0.o(i.__0vsprintf$0) refers to printf0.o(i._printf_core) for _printf_core
    printf0.o(i.__0vsprintf$0) refers to printf0.o(i._sputc) for _sputc
    printf1.o(i.__0fprintf$1) refers to printf1.o(i._printf_core) for _printf_core
    printf1.o(i.__0fprintf$1) refers to fputc.o(i.fputc) for fputc
    printf1.o(i.__0printf$1) refers to printf1.o(i._printf_core) for _printf_core
    printf1.o(i.__0printf$1) refers to fputc.o(i.fputc) for fputc
    printf1.o(i.__0printf$1) refers to stdout.o(.data) for __stdout
    printf1.o(i.__0snprintf$1) refers to printf1.o(i._printf_core) for _printf_core
    printf1.o(i.__0snprintf$1) refers to printf1.o(i._snputc) for _snputc
    printf1.o(i.__0sprintf$1) refers to printf1.o(i._printf_core) for _printf_core
    printf1.o(i.__0sprintf$1) refers to printf1.o(i._sputc) for _sputc
    printf1.o(i.__0vfprintf$1) refers to printf1.o(i._printf_core) for _printf_core
    printf1.o(i.__0vfprintf$1) refers to fputc.o(i.fputc) for fputc
    printf1.o(i.__0vprintf$1) refers to printf1.o(i._printf_core) for _printf_core
    printf1.o(i.__0vprintf$1) refers to fputc.o(i.fputc) for fputc
    printf1.o(i.__0vprintf$1) refers to stdout.o(.data) for __stdout
    printf1.o(i.__0vsnprintf$1) refers to printf1.o(i._printf_core) for _printf_core
    printf1.o(i.__0vsnprintf$1) refers to printf1.o(i._snputc) for _snputc
    printf1.o(i.__0vsprintf$1) refers to printf1.o(i._printf_core) for _printf_core
    printf1.o(i.__0vsprintf$1) refers to printf1.o(i._sputc) for _sputc
    printf1.o(i._printf_core) refers to uidiv.o(.text) for __aeabi_uidivmod
    printf2.o(i.__0fprintf$2) refers to printf2.o(i._printf_core) for _printf_core
    printf2.o(i.__0fprintf$2) refers to fputc.o(i.fputc) for fputc
    printf2.o(i.__0printf$2) refers to printf2.o(i._printf_core) for _printf_core
    printf2.o(i.__0printf$2) refers to fputc.o(i.fputc) for fputc
    printf2.o(i.__0printf$2) refers to stdout.o(.data) for __stdout
    printf2.o(i.__0snprintf$2) refers to printf2.o(i._printf_core) for _printf_core
    printf2.o(i.__0snprintf$2) refers to printf2.o(i._snputc) for _snputc
    printf2.o(i.__0sprintf$2) refers to printf2.o(i._printf_core) for _printf_core
    printf2.o(i.__0sprintf$2) refers to printf2.o(i._sputc) for _sputc
    printf2.o(i.__0vfprintf$2) refers to printf2.o(i._printf_core) for _printf_core
    printf2.o(i.__0vfprintf$2) refers to fputc.o(i.fputc) for fputc
    printf2.o(i.__0vprintf$2) refers to printf2.o(i._printf_core) for _printf_core
    printf2.o(i.__0vprintf$2) refers to fputc.o(i.fputc) for fputc
    printf2.o(i.__0vprintf$2) refers to stdout.o(.data) for __stdout
    printf2.o(i.__0vsnprintf$2) refers to printf2.o(i._printf_core) for _printf_core
    printf2.o(i.__0vsnprintf$2) refers to printf2.o(i._snputc) for _snputc
    printf2.o(i.__0vsprintf$2) refers to printf2.o(i._printf_core) for _printf_core
    printf2.o(i.__0vsprintf$2) refers to printf2.o(i._sputc) for _sputc
    printf3.o(i.__0fprintf$3) refers to printf3.o(i._printf_core) for _printf_core
    printf3.o(i.__0fprintf$3) refers to fputc.o(i.fputc) for fputc
    printf3.o(i.__0printf$3) refers to printf3.o(i._printf_core) for _printf_core
    printf3.o(i.__0printf$3) refers to fputc.o(i.fputc) for fputc
    printf3.o(i.__0printf$3) refers to stdout.o(.data) for __stdout
    printf3.o(i.__0snprintf$3) refers to printf3.o(i._printf_core) for _printf_core
    printf3.o(i.__0snprintf$3) refers to printf3.o(i._snputc) for _snputc
    printf3.o(i.__0sprintf$3) refers to printf3.o(i._printf_core) for _printf_core
    printf3.o(i.__0sprintf$3) refers to printf3.o(i._sputc) for _sputc
    printf3.o(i.__0vfprintf$3) refers to printf3.o(i._printf_core) for _printf_core
    printf3.o(i.__0vfprintf$3) refers to fputc.o(i.fputc) for fputc
    printf3.o(i.__0vprintf$3) refers to printf3.o(i._printf_core) for _printf_core
    printf3.o(i.__0vprintf$3) refers to fputc.o(i.fputc) for fputc
    printf3.o(i.__0vprintf$3) refers to stdout.o(.data) for __stdout
    printf3.o(i.__0vsnprintf$3) refers to printf3.o(i._printf_core) for _printf_core
    printf3.o(i.__0vsnprintf$3) refers to printf3.o(i._snputc) for _snputc
    printf3.o(i.__0vsprintf$3) refers to printf3.o(i._printf_core) for _printf_core
    printf3.o(i.__0vsprintf$3) refers to printf3.o(i._sputc) for _sputc
    printf3.o(i._printf_core) refers to uidiv.o(.text) for __aeabi_uidivmod
    printf4.o(i.__0fprintf$4) refers to printf4.o(i._printf_core) for _printf_core
    printf4.o(i.__0fprintf$4) refers to fputc.o(i.fputc) for fputc
    printf4.o(i.__0printf$4) refers to printf4.o(i._printf_core) for _printf_core
    printf4.o(i.__0printf$4) refers to fputc.o(i.fputc) for fputc
    printf4.o(i.__0printf$4) refers to stdout.o(.data) for __stdout
    printf4.o(i.__0snprintf$4) refers to printf4.o(i._printf_core) for _printf_core
    printf4.o(i.__0snprintf$4) refers to printf4.o(i._snputc) for _snputc
    printf4.o(i.__0sprintf$4) refers to printf4.o(i._printf_core) for _printf_core
    printf4.o(i.__0sprintf$4) refers to printf4.o(i._sputc) for _sputc
    printf4.o(i.__0vfprintf$4) refers to printf4.o(i._printf_core) for _printf_core
    printf4.o(i.__0vfprintf$4) refers to fputc.o(i.fputc) for fputc
    printf4.o(i.__0vprintf$4) refers to printf4.o(i._printf_core) for _printf_core
    printf4.o(i.__0vprintf$4) refers to fputc.o(i.fputc) for fputc
    printf4.o(i.__0vprintf$4) refers to stdout.o(.data) for __stdout
    printf4.o(i.__0vsnprintf$4) refers to printf4.o(i._printf_core) for _printf_core
    printf4.o(i.__0vsnprintf$4) refers to printf4.o(i._snputc) for _snputc
    printf4.o(i.__0vsprintf$4) refers to printf4.o(i._printf_core) for _printf_core
    printf4.o(i.__0vsprintf$4) refers to printf4.o(i._sputc) for _sputc
    printf4.o(i._printf_core) refers to uldiv.o(.text) for __aeabi_uldivmod
    printf5.o(i.__0fprintf$5) refers to printf5.o(i._printf_core) for _printf_core
    printf5.o(i.__0fprintf$5) refers to fputc.o(i.fputc) for fputc
    printf5.o(i.__0printf$5) refers to printf5.o(i._printf_core) for _printf_core
    printf5.o(i.__0printf$5) refers to fputc.o(i.fputc) for fputc
    printf5.o(i.__0printf$5) refers to stdout.o(.data) for __stdout
    printf5.o(i.__0snprintf$5) refers to printf5.o(i._printf_core) for _printf_core
    printf5.o(i.__0snprintf$5) refers to printf5.o(i._snputc) for _snputc
    printf5.o(i.__0sprintf$5) refers to printf5.o(i._printf_core) for _printf_core
    printf5.o(i.__0sprintf$5) refers to printf5.o(i._sputc) for _sputc
    printf5.o(i.__0vfprintf$5) refers to printf5.o(i._printf_core) for _printf_core
    printf5.o(i.__0vfprintf$5) refers to fputc.o(i.fputc) for fputc
    printf5.o(i.__0vprintf$5) refers to printf5.o(i._printf_core) for _printf_core
    printf5.o(i.__0vprintf$5) refers to fputc.o(i.fputc) for fputc
    printf5.o(i.__0vprintf$5) refers to stdout.o(.data) for __stdout
    printf5.o(i.__0vsnprintf$5) refers to printf5.o(i._printf_core) for _printf_core
    printf5.o(i.__0vsnprintf$5) refers to printf5.o(i._snputc) for _snputc
    printf5.o(i.__0vsprintf$5) refers to printf5.o(i._printf_core) for _printf_core
    printf5.o(i.__0vsprintf$5) refers to printf5.o(i._sputc) for _sputc
    printf5.o(i._printf_core) refers to uldiv.o(.text) for __aeabi_uldivmod
    printf6.o(i.__0fprintf$6) refers to printf6.o(i._printf_core) for _printf_core
    printf6.o(i.__0fprintf$6) refers to fputc.o(i.fputc) for fputc
    printf6.o(i.__0printf$6) refers to printf6.o(i._printf_core) for _printf_core
    printf6.o(i.__0printf$6) refers to fputc.o(i.fputc) for fputc
    printf6.o(i.__0printf$6) refers to stdout.o(.data) for __stdout
    printf6.o(i.__0snprintf$6) refers to printf6.o(i._printf_core) for _printf_core
    printf6.o(i.__0snprintf$6) refers to printf6.o(i._snputc) for _snputc
    printf6.o(i.__0sprintf$6) refers to printf6.o(i._printf_core) for _printf_core
    printf6.o(i.__0sprintf$6) refers to printf6.o(i._sputc) for _sputc
    printf6.o(i.__0vfprintf$6) refers to printf6.o(i._printf_core) for _printf_core
    printf6.o(i.__0vfprintf$6) refers to fputc.o(i.fputc) for fputc
    printf6.o(i.__0vprintf$6) refers to printf6.o(i._printf_core) for _printf_core
    printf6.o(i.__0vprintf$6) refers to fputc.o(i.fputc) for fputc
    printf6.o(i.__0vprintf$6) refers to stdout.o(.data) for __stdout
    printf6.o(i.__0vsnprintf$6) refers to printf6.o(i._printf_core) for _printf_core
    printf6.o(i.__0vsnprintf$6) refers to printf6.o(i._snputc) for _snputc
    printf6.o(i.__0vsprintf$6) refers to printf6.o(i._printf_core) for _printf_core
    printf6.o(i.__0vsprintf$6) refers to printf6.o(i._sputc) for _sputc
    printf6.o(i._printf_core) refers to printf6.o(i._printf_pre_padding) for _printf_pre_padding
    printf6.o(i._printf_core) refers to printf6.o(i._printf_post_padding) for _printf_post_padding
    printf6.o(i._printf_core) refers to uidiv.o(.text) for __aeabi_uidivmod
    printf7.o(i.__0fprintf$7) refers to printf7.o(i._printf_core) for _printf_core
    printf7.o(i.__0fprintf$7) refers to fputc.o(i.fputc) for fputc
    printf7.o(i.__0printf$7) refers to printf7.o(i._printf_core) for _printf_core
    printf7.o(i.__0printf$7) refers to fputc.o(i.fputc) for fputc
    printf7.o(i.__0printf$7) refers to stdout.o(.data) for __stdout
    printf7.o(i.__0snprintf$7) refers to printf7.o(i._printf_core) for _printf_core
    printf7.o(i.__0snprintf$7) refers to printf7.o(i._snputc) for _snputc
    printf7.o(i.__0sprintf$7) refers to printf7.o(i._printf_core) for _printf_core
    printf7.o(i.__0sprintf$7) refers to printf7.o(i._sputc) for _sputc
    printf7.o(i.__0vfprintf$7) refers to printf7.o(i._printf_core) for _printf_core
    printf7.o(i.__0vfprintf$7) refers to fputc.o(i.fputc) for fputc
    printf7.o(i.__0vprintf$7) refers to printf7.o(i._printf_core) for _printf_core
    printf7.o(i.__0vprintf$7) refers to fputc.o(i.fputc) for fputc
    printf7.o(i.__0vprintf$7) refers to stdout.o(.data) for __stdout
    printf7.o(i.__0vsnprintf$7) refers to printf7.o(i._printf_core) for _printf_core
    printf7.o(i.__0vsnprintf$7) refers to printf7.o(i._snputc) for _snputc
    printf7.o(i.__0vsprintf$7) refers to printf7.o(i._printf_core) for _printf_core
    printf7.o(i.__0vsprintf$7) refers to printf7.o(i._sputc) for _sputc
    printf7.o(i._printf_core) refers to printf7.o(i._printf_pre_padding) for _printf_pre_padding
    printf7.o(i._printf_core) refers to printf7.o(i._printf_post_padding) for _printf_post_padding
    printf7.o(i._printf_core) refers to uldiv.o(.text) for __aeabi_uldivmod
    printf8.o(i.__0fprintf$8) refers to printf8.o(i._printf_core) for _printf_core
    printf8.o(i.__0fprintf$8) refers to fputc.o(i.fputc) for fputc
    printf8.o(i.__0printf$8) refers to printf8.o(i._printf_core) for _printf_core
    printf8.o(i.__0printf$8) refers to fputc.o(i.fputc) for fputc
    printf8.o(i.__0printf$8) refers to stdout.o(.data) for __stdout
    printf8.o(i.__0snprintf$8) refers to printf8.o(i._printf_core) for _printf_core
    printf8.o(i.__0snprintf$8) refers to printf8.o(i._snputc) for _snputc
    printf8.o(i.__0sprintf$8) refers to printf8.o(i._printf_core) for _printf_core
    printf8.o(i.__0sprintf$8) refers to printf8.o(i._sputc) for _sputc
    printf8.o(i.__0vfprintf$8) refers to printf8.o(i._printf_core) for _printf_core
    printf8.o(i.__0vfprintf$8) refers to fputc.o(i.fputc) for fputc
    printf8.o(i.__0vprintf$8) refers to printf8.o(i._printf_core) for _printf_core
    printf8.o(i.__0vprintf$8) refers to fputc.o(i.fputc) for fputc
    printf8.o(i.__0vprintf$8) refers to stdout.o(.data) for __stdout
    printf8.o(i.__0vsnprintf$8) refers to printf8.o(i._printf_core) for _printf_core
    printf8.o(i.__0vsnprintf$8) refers to printf8.o(i._snputc) for _snputc
    printf8.o(i.__0vsprintf$8) refers to printf8.o(i._printf_core) for _printf_core
    printf8.o(i.__0vsprintf$8) refers to printf8.o(i._sputc) for _sputc
    printf8.o(i._printf_core) refers to printf8.o(i._printf_pre_padding) for _printf_pre_padding
    printf8.o(i._printf_core) refers to printf8.o(i._printf_post_padding) for _printf_post_padding
    printf8.o(i._printf_core) refers to uldiv.o(.text) for __aeabi_uldivmod
    printfa.o(i.__0fprintf) refers (Special) to iusefp.o(.text) for __I$use$fp
    printfa.o(i.__0fprintf) refers to printfa.o(i._printf_core) for _printf_core
    printfa.o(i.__0fprintf) refers to fputc.o(i.fputc) for fputc
    printfa.o(i.__0printf) refers (Special) to iusefp.o(.text) for __I$use$fp
    printfa.o(i.__0printf) refers to printfa.o(i._printf_core) for _printf_core
    printfa.o(i.__0printf) refers to fputc.o(i.fputc) for fputc
    printfa.o(i.__0printf) refers to stdout.o(.data) for __stdout
    printfa.o(i.__0snprintf) refers (Special) to iusefp.o(.text) for __I$use$fp
    printfa.o(i.__0snprintf) refers to printfa.o(i._printf_core) for _printf_core
    printfa.o(i.__0snprintf) refers to printfa.o(i._snputc) for _snputc
    printfa.o(i.__0sprintf) refers (Special) to iusefp.o(.text) for __I$use$fp
    printfa.o(i.__0sprintf) refers to printfa.o(i._printf_core) for _printf_core
    printfa.o(i.__0sprintf) refers to printfa.o(i._sputc) for _sputc
    printfa.o(i.__0vfprintf) refers (Special) to iusefp.o(.text) for __I$use$fp
    printfa.o(i.__0vfprintf) refers to printfa.o(i._printf_core) for _printf_core
    printfa.o(i.__0vfprintf) refers to fputc.o(i.fputc) for fputc
    printfa.o(i.__0vprintf) refers (Special) to iusefp.o(.text) for __I$use$fp
    printfa.o(i.__0vprintf) refers to printfa.o(i._printf_core) for _printf_core
    printfa.o(i.__0vprintf) refers to fputc.o(i.fputc) for fputc
    printfa.o(i.__0vprintf) refers to stdout.o(.data) for __stdout
    printfa.o(i.__0vsnprintf) refers (Special) to iusefp.o(.text) for __I$use$fp
    printfa.o(i.__0vsnprintf) refers to printfa.o(i._printf_core) for _printf_core
    printfa.o(i.__0vsnprintf) refers to printfa.o(i._snputc) for _snputc
    printfa.o(i.__0vsprintf) refers (Special) to iusefp.o(.text) for __I$use$fp
    printfa.o(i.__0vsprintf) refers to printfa.o(i._printf_core) for _printf_core
    printfa.o(i.__0vsprintf) refers to printfa.o(i._sputc) for _sputc
    printfa.o(i._fp_digits) refers (Special) to iusefp.o(.text) for __I$use$fp
    printfa.o(i._fp_digits) refers to dmul.o(.text) for __aeabi_dmul
    printfa.o(i._fp_digits) refers to ddiv.o(.text) for __aeabi_ddiv
    printfa.o(i._fp_digits) refers to cdrcmple.o(.text) for __aeabi_cdrcmple
    printfa.o(i._fp_digits) refers to dadd.o(.text) for __aeabi_dadd
    printfa.o(i._fp_digits) refers to dfixul.o(.text) for __aeabi_d2ulz
    printfa.o(i._fp_digits) refers to uldiv.o(.text) for __aeabi_uldivmod
    printfa.o(i._printf_core) refers (Special) to iusefp.o(.text) for __I$use$fp
    printfa.o(i._printf_core) refers to printfa.o(i._printf_pre_padding) for _printf_pre_padding
    printfa.o(i._printf_core) refers to uldiv.o(.text) for __aeabi_uldivmod
    printfa.o(i._printf_core) refers to printfa.o(i._printf_post_padding) for _printf_post_padding
    printfa.o(i._printf_core) refers to printfa.o(i._fp_digits) for _fp_digits
    printfa.o(i._printf_core) refers to uidiv.o(.text) for __aeabi_uidivmod
    printfa.o(i._printf_post_padding) refers (Special) to iusefp.o(.text) for __I$use$fp
    printfa.o(i._printf_pre_padding) refers (Special) to iusefp.o(.text) for __I$use$fp
    printfa.o(i._snputc) refers (Special) to iusefp.o(.text) for __I$use$fp
    printfa.o(i._sputc) refers (Special) to iusefp.o(.text) for __I$use$fp
    malloc.o(i.free) refers to mvars.o(.data) for __microlib_freelist
    malloc.o(i.malloc) refers to mvars.o(.data) for __microlib_freelist_initialised
    malloc.o(i.malloc) refers to mvars.o(.data) for __microlib_freelist
    malloc.o(i.malloc) refers to arm_startup_nrf51.o(HEAP) for __heap_base
    mallocr.o(i.__free$realloc) refers to mvars.o(.data) for __microlib_freelist
    mallocr.o(i.__malloc$realloc) refers to mallocr.o(i.internal_alloc) for internal_alloc
    mallocr.o(i.__malloc$realloc) refers to mvars.o(.data) for __microlib_freelist_initialised
    mallocr.o(i.__malloc$realloc) refers to arm_startup_nrf51.o(HEAP) for __heap_base
    mallocr.o(i.__malloc$realloc) refers to mvars.o(.data) for __microlib_freelist
    mallocr.o(i.internal_alloc) refers to memmovea.o(.text) for __aeabi_memcpy
    mallocr.o(i.internal_alloc) refers to mvars.o(.data) for __microlib_freelist
    mallocr.o(i.realloc) refers to mallocr.o(i.__free$realloc) for free
    mallocr.o(i.realloc) refers to mallocr.o(i.internal_alloc) for internal_alloc
    mallocr.o(i.realloc) refers to mallocr.o(i.__malloc$realloc) for malloc
    mallocr.o(i.realloc) refers to mvars.o(.data) for __microlib_freelist
    malloca.o(i.__aligned_malloc) refers to mvars.o(.data) for __microlib_freelist
    malloca.o(i.__aligned_malloc) refers to mvars.o(.data) for __microlib_freelist_initialised
    malloca.o(i.__aligned_malloc) refers to arm_startup_nrf51.o(HEAP) for __heap_base
    malloca.o(i.__free$memalign) refers to mvars.o(.data) for __microlib_freelist
    malloca.o(i.__malloc$memalign) refers to malloca.o(i.__aligned_malloc) for __aligned_malloc
    mallocra.o(i.__aligned_malloc$realloc) refers to mallocra.o(i.internal_alloc) for internal_alloc
    mallocra.o(i.__aligned_malloc$realloc) refers to arm_startup_nrf51.o(HEAP) for __heap_base
    mallocra.o(i.__aligned_malloc$realloc) refers to mvars.o(.data) for __microlib_freelist
    mallocra.o(i.__aligned_malloc$realloc) refers to mvars.o(.data) for __microlib_freelist_initialised
    mallocra.o(i.__free$realloc$memalign) refers to mvars.o(.data) for __microlib_freelist
    mallocra.o(i.__malloc$realloc$memalign) refers to mallocra.o(i.__aligned_malloc$realloc) for __aligned_malloc$realloc
    mallocra.o(i.__realloc$memalign) refers to mallocra.o(i.__free$realloc$memalign) for __free$realloc$memalign
    mallocra.o(i.__realloc$memalign) refers to mallocra.o(i.internal_alloc) for internal_alloc
    mallocra.o(i.__realloc$memalign) refers to mallocra.o(i.__malloc$realloc$memalign) for __malloc$realloc$memalign
    mallocra.o(i.__realloc$memalign) refers to mvars.o(.data) for __microlib_freelist
    mallocra.o(i.internal_alloc) refers to memmovea.o(.text) for __aeabi_memcpy
    mallocra.o(i.internal_alloc) refers to mvars.o(.data) for __microlib_freelist
    atol.o(.text) refers to errno.o(i.__aeabi_errno_addr) for __aeabi_errno_addr
    atol.o(.text) refers to strtol.o(.text) for strtol
    cpp_init.o(.emb_text) refers (Special) to entry8a.o(.ARM.Collect$$$$00000009) for _main_cpp_init$empty
    cpp_init.o(.init_array) refers (Special) to entry8a.o(.ARM.Collect$$$$00000009) for _main_cpp_init$empty
    cpp_init.o(.init_array) refers to cpp_init.o(.text) for __cpp_initialize__aeabi_
    cpp_init.o(.dummy_text) refers (Special) to entry8a.o(.ARM.Collect$$$$00000009) for _main_cpp_init$empty
    cpp_init.o(.text) refers (Special) to entry8a.o(.ARM.Collect$$$$00000009) for _main_cpp_init$empty
    fadd.o(.text) refers (Special) to iusefp.o(.text) for __I$use$fp
    fadd.o(.text) refers to fepilogue.o(.text) for _float_epilogue
    fmul.o(.text) refers (Special) to iusefp.o(.text) for __I$use$fp
    dadd.o(.text) refers (Special) to iusefp.o(.text) for __I$use$fp
    dadd.o(.text) refers to llshl.o(.text) for __aeabi_llsl
    dadd.o(.text) refers to llsshr.o(.text) for __aeabi_lasr
    dadd.o(.text) refers to depilogue.o(.text) for _double_epilogue
    dmul.o(.text) refers (Special) to iusefp.o(.text) for __I$use$fp
    dmul.o(.text) refers to depilogue.o(.text) for _double_epilogue
    ddiv.o(.text) refers (Special) to iusefp.o(.text) for __I$use$fp
    ddiv.o(.text) refers to depilogue.o(.text) for _double_round
    fflti.o(.text) refers (Special) to iusefp.o(.text) for __I$use$fp
    fflti.o(.text) refers to fepilogue.o(.text) for _float_epilogue
    dflti.o(.text) refers (Special) to iusefp.o(.text) for __I$use$fp
    dflti.o(.text) refers to depilogue.o(.text) for _double_epilogue
    dfltui.o(.text) refers (Special) to iusefp.o(.text) for __I$use$fp
    dfltui.o(.text) refers to depilogue.o(.text) for _double_epilogue
    ffixui.o(.text) refers (Special) to iusefp.o(.text) for __I$use$fp
    dfixi.o(.text) refers (Special) to iusefp.o(.text) for __I$use$fp
    dfixi.o(.text) refers to llushr.o(.text) for __aeabi_llsr
    dfixui.o(.text) refers (Special) to iusefp.o(.text) for __I$use$fp
    dfixui.o(.text) refers to llushr.o(.text) for __aeabi_llsr
    f2d.o(.text) refers (Special) to iusefp.o(.text) for __I$use$fp
    cdcmple.o(.text) refers (Special) to iusefp.o(.text) for __I$use$fp
    cdrcmple.o(.text) refers (Special) to iusefp.o(.text) for __I$use$fp
    d2f.o(.text) refers (Special) to iusefp.o(.text) for __I$use$fp
    d2f.o(.text) refers to fepilogue.o(.text) for _float_round
    type_info_dtor.o(.ARM.exidx) refers to type_info_dtor.o(i._ZNSt9type_infoD1Ev) for i._ZNSt9type_infoD1Ev
    type_info_dtor.o(.ARM.exidx) refers to type_info_dtor.o(i._ZNSt9type_infoD0Ev) for i._ZNSt9type_infoD0Ev
    arm_exceptions_callterm.o(.text) refers to arm_exceptions_globs.o(.text) for __cxa_get_globals
    arm_exceptions_callterm.o(.text) refers to arm_exceptions_support.o(.text) for __ARM::is_foreign_exception(_Unwind_Control_Block*)
    arm_exceptions_callterm.o(.text) refers to arm_exceptions_terminate.o(.text) for std::terminate()
    arm_exceptions_callterm.o(.ARM.exidx) refers to arm_exceptions_callterm.o(.text) for .text
    fpclassifyf.o(i.__ARM_fpclassifyf) refers (Special) to iusefp.o(.text) for __I$use$fp
    funder.o(i.__mathlib_flt_divzero) refers to fdiv.o(.text) for __aeabi_fdiv
    funder.o(i.__mathlib_flt_infnan) refers to fscalb.o(.text) for __ARM_scalbnf
    funder.o(i.__mathlib_flt_infnan2) refers to fadd.o(.text) for __aeabi_fadd
    funder.o(i.__mathlib_flt_invalid) refers to fdiv.o(.text) for __aeabi_fdiv
    funder.o(i.__mathlib_flt_overflow) refers to fscalb.o(.text) for __ARM_scalbnf
    funder.o(i.__mathlib_flt_posinfnan) refers to fmul.o(.text) for __aeabi_fmul
    funder.o(i.__mathlib_flt_underflow) refers to fscalb.o(.text) for __ARM_scalbnf
    entry2.o(.ARM.Collect$$$$00000001) refers to entry2.o(.ARM.Collect$$$$00002712) for __lit__00000000
    entry2.o(.ARM.Collect$$$$00002712) refers to arm_startup_nrf51.o(STACK) for __initial_sp
    entry2.o(__vectab_stack_and_reset_area) refers to arm_startup_nrf51.o(STACK) for __initial_sp
    entry2.o(__vectab_stack_and_reset_area) refers to entry.o(.ARM.Collect$$$$00000000) for __main
    entry5.o(.ARM.Collect$$$$00000004) refers to init.o(.text) for __scatterload
    entry8a.o(.ARM.Collect$$$$00000009) refers (Weak) to cpp_init.o(.text) for __cpp_initialize__aeabi_
    entry9a.o(.ARM.Collect$$$$0000000B) refers to main.o(i.main) for main
    entry9b.o(.ARM.Collect$$$$0000000C) refers to main.o(i.main) for main
    fputc.o(i.fputc) refers (Special) to iusesemip.o(.text) for __I$use$semihosting$fputc
    fputc.o(i.fputc) refers (Special) to semi.o(.text) for __semihosting_library_function
    uldiv.o(.text) refers to llushr.o(.text) for __aeabi_llsr
    uldiv.o(.text) refers to llshl.o(.text) for __aeabi_llsl
    errno.o(i.__aeabi_errno_addr) refers to errno.o(.data) for .data
    errno.o(i.__read_errno) refers to errno.o(.data) for .data
    errno.o(i.__set_errno) refers to errno.o(.data) for .data
    strtod.o(.text) refers to scanf_fp.o(.text) for _scanf_real
    strtod.o(.text) refers to _sgetc.o(.text) for _sgetc
    strtod.o(.text) refers to isspace_o.o(.text) for isspace
    strtol.o(.text) refers to ctype_o.o(.text) for __rt_ctype_table
    strtol.o(.text) refers to _strtoul.o(.text) for _strtoul
    strtol.o(.text) refers to errno.o(i.__aeabi_errno_addr) for __aeabi_errno_addr
    fdiv.o(.text) refers to fepilogue.o(.text) for _float_round
    depilogue.o(.text) refers to depilogue.o(i.__ARM_clz) for __ARM_clz
    depilogue.o(.text) refers to llshl.o(.text) for __aeabi_llsl
    depilogue.o(.text) refers to llushr.o(.text) for __aeabi_llsr
    dfixul.o(.text) refers to llushr.o(.text) for __aeabi_llsr
    dfixul.o(.text) refers to llshl.o(.text) for __aeabi_llsl
    ffixir.o(.text) refers to fepilogue.o(.text) for _float_round
    arm_begincatch_noexceptions.o(.ARM.exidx) refers to arm_begincatch_noexceptions.o(.text) for .text
    arm_exceptions_support.o(.text) refers to arm_exceptions_support.o(.constdata) for .constdata
    arm_exceptions_support.o(.ARM.exidx) refers to arm_exceptions_support.o(.text) for .text
    arm_exceptions_terminate.o(.text) refers to arm_exceptions_globs.o(.text) for __cxa_get_globals
    arm_exceptions_terminate.o(.ARM.exidx) refers to arm_exceptions_terminate.o(.text) for .text
    arm_exceptions_globs.o(.text) refers to cpp_unwinder.o(.text) for __rt_eh_globals_addr
    arm_exceptions_globs.o(.text) refers to mallocr.o(i.__malloc$realloc) for malloc
    arm_exceptions_globs.o(.text) refers to arm_exceptions_mem.o(.text) for __ARM_exceptions_buffer_init
    arm_exceptions_globs.o(.ARM.exidx) refers to arm_exceptions_globs.o(.text) for .text
    init.o(.text) refers to entry5.o(.ARM.Collect$$$$00000004) for __main_after_scatterload
    isspace_c.o(.text) refers to ctype_c.o(.text) for __ctype_lookup
    scanf_fp.o(.text) refers (Special) to iusefp.o(.text) for __I$use$fp
    scanf_fp.o(.text) refers to llmul.o(.text) for __aeabi_lmul
    scanf_fp.o(.text) refers to dfltul.o(.text) for __aeabi_ul2d
    scanf_fp.o(.text) refers to dmul.o(.text) for __aeabi_dmul
    scanf_fp.o(.text) refers to ddiv.o(.text) for __aeabi_ddiv
    scanf_fp.o(.text) refers to scanf_fp.o(i._is_digit) for _is_digit
    scanf_fp.o(.text) refers to d2f.o(.text) for __aeabi_d2f
    _strtoul.o(.text) refers to _chval.o(.text) for _chval
    _strtoul.o(.text) refers to errno.o(i.__aeabi_errno_addr) for __aeabi_errno_addr
    arm_exceptions_mem.o(.text) refers to mallocr.o(i.__malloc$realloc) for malloc
    arm_exceptions_mem.o(.ARM.exidx) refers to arm_exceptions_mem.o(.text) for .text
    ctype_c.o(.text) refers to ctype_c.o(.constdata) for .constdata
    cpp_unwinder.o(.text) refers to cpp_unwinder.o(.data) for .data
    dfltul.o(.text) refers to depilogue.o(.text) for _double_epilogue
    print.o(i._ZN5Print5writeEPKc) refers to strlen.o(.text) for strlen
    print.o(i._ZN5Print5writeEPKc) refers to print.o(i._ZN5Print5writeEPKhj) for Print::write(const unsigned char*, unsigned)
    print.o(.ARM.exidx) refers to print.o(i._ZN5Print5writeEPKc) for i._ZN5Print5writeEPKc
    uartclass.o(.constdata__ZTV9UARTClass) refers to uartclass.o(.constdata__ZTI9UARTClass) for typeinfo for UARTClass
    uartclass.o(.constdata__ZTV9UARTClass) refers to uartclass.o(i._ZN9UARTClass5writeEh) for UARTClass::write(unsigned char)
    uartclass.o(.constdata__ZTV9UARTClass) refers to uartclass.o(i._ZN9UARTClass9availableEv) for UARTClass::available()
    uartclass.o(.constdata__ZTV9UARTClass) refers to uartclass.o(i._ZN9UARTClass4readEv) for UARTClass::read()
    uartclass.o(.constdata__ZTV9UARTClass) refers to uartclass.o(i._ZN9UARTClass4peekEv) for UARTClass::peek()
    uartclass.o(.constdata__ZTV9UARTClass) refers to uartclass.o(i._ZN9UARTClass5flushEv) for UARTClass::flush()
    uartclass.o(.constdata__ZTV9UARTClass) refers to uartclass.o(i._ZN9UARTClasscvbEv) for UARTClass::operator bool()
    uartclass.o(.ARM.exidx) refers to uartclass.o(i._ZN9UARTClasscvbEv) for i._ZN9UARTClasscvbEv
    uartclass.o(.constdata__ZTI9UARTClass) refers to lib_rtti_impl.o(.constdata__ZTVN10__cxxabiv120__si_class_type_infoE) for vtable for __cxxabiv1::__si_class_type_info
    uartclass.o(.constdata__ZTI9UARTClass) refers to uartclass.o(.constdata__ZTS9UARTClass) for typeinfo name for UARTClass
    uartclass.o(.constdata__ZTI9UARTClass) refers to uartclass.o(.constdata__ZTI14HardwareSerial) for typeinfo for HardwareSerial
    uartclass.o(.constdata__ZTI14HardwareSerial) refers to lib_rtti_impl.o(.constdata__ZTVN10__cxxabiv120__si_class_type_infoE) for vtable for __cxxabiv1::__si_class_type_info
    uartclass.o(.constdata__ZTI14HardwareSerial) refers to uartclass.o(.constdata__ZTS14HardwareSerial) for typeinfo name for HardwareSerial
    uartclass.o(.constdata__ZTI14HardwareSerial) refers to uartclass.o(.constdata__ZTI6Stream) for typeinfo for Stream
    uartclass.o(.constdata__ZTI6Stream) refers to lib_rtti_impl.o(.constdata__ZTVN10__cxxabiv120__si_class_type_infoE) for vtable for __cxxabiv1::__si_class_type_info
    uartclass.o(.constdata__ZTI6Stream) refers to uartclass.o(.constdata__ZTS6Stream) for typeinfo name for Stream
    uartclass.o(.constdata__ZTI6Stream) refers to uartclass.o(.constdata__ZTI5Print) for typeinfo for Print
    uartclass.o(.constdata__ZTI5Print) refers to lib_rtti_impl.o(.constdata__ZTVN10__cxxabiv117__class_type_infoE) for vtable for __cxxabiv1::__class_type_info
    uartclass.o(.constdata__ZTI5Print) refers to uartclass.o(.constdata__ZTS5Print) for typeinfo name for Print
    wiring_digital.o(.ARM.exidx) refers to wiring_digital.o(i.__ARM_common_switch8) for i.__ARM_common_switch8
    wstring.o(.ARM.exidx) refers to wstring.o(i._ZN6String4initEv) for i._ZN6String4initEv
    wstring.o(i._ZSt6strstrPcPKc) refers to strstr.o(.text) for strstr
    wstring.o(.ARM.exidx) refers to wstring.o(i._ZSt6strstrPcPKc) for i._ZSt6strstrPcPKc
    lib_rtti_impl.o(.constdata__ZTVN10__cxxabiv123__fundamental_type_infoE) refers to lib_rtti_impl.o(.constdata__ZTIN10__cxxabiv123__fundamental_type_infoE) for typeinfo for __cxxabiv1::__fundamental_type_info
    lib_rtti_impl.o(.constdata__ZTVN10__cxxabiv123__fundamental_type_infoE) refers to lib_rtti_impl.o(i._ZN10__cxxabiv123__fundamental_type_infoD1Ev) for __cxxabiv1::__fundamental_type_info::~__fundamental_type_info()
    lib_rtti_impl.o(.constdata__ZTVN10__cxxabiv123__fundamental_type_infoE) refers to lib_rtti_impl.o(i._ZN10__cxxabiv123__fundamental_type_infoD0Ev) for __cxxabiv1::__fundamental_type_info::~__fundamental_type_info__deallocating()
    lib_rtti_impl.o(.constdata__ZTVN10__cxxabiv117__array_type_infoE) refers to lib_rtti_impl.o(.constdata__ZTIN10__cxxabiv117__array_type_infoE) for typeinfo for __cxxabiv1::__array_type_info
    lib_rtti_impl.o(.constdata__ZTVN10__cxxabiv117__array_type_infoE) refers to lib_rtti_impl.o(i._ZN10__cxxabiv117__array_type_infoD1Ev) for __cxxabiv1::__array_type_info::~__array_type_info()
    lib_rtti_impl.o(.constdata__ZTVN10__cxxabiv117__array_type_infoE) refers to lib_rtti_impl.o(i._ZN10__cxxabiv117__array_type_infoD0Ev) for __cxxabiv1::__array_type_info::~__array_type_info__deallocating()
    lib_rtti_impl.o(.constdata__ZTVN10__cxxabiv120__function_type_infoE) refers to lib_rtti_impl.o(.constdata__ZTIN10__cxxabiv120__function_type_infoE) for typeinfo for __cxxabiv1::__function_type_info
    lib_rtti_impl.o(.constdata__ZTVN10__cxxabiv120__function_type_infoE) refers to lib_rtti_impl.o(i._ZN10__cxxabiv120__function_type_infoD1Ev) for __cxxabiv1::__function_type_info::~__function_type_info()
    lib_rtti_impl.o(.constdata__ZTVN10__cxxabiv120__function_type_infoE) refers to lib_rtti_impl.o(i._ZN10__cxxabiv120__function_type_infoD0Ev) for __cxxabiv1::__function_type_info::~__function_type_info__deallocating()
    lib_rtti_impl.o(.constdata__ZTVN10__cxxabiv116__enum_type_infoE) refers to lib_rtti_impl.o(.constdata__ZTIN10__cxxabiv116__enum_type_infoE) for typeinfo for __cxxabiv1::__enum_type_info
    lib_rtti_impl.o(.constdata__ZTVN10__cxxabiv116__enum_type_infoE) refers to lib_rtti_impl.o(i._ZN10__cxxabiv116__enum_type_infoD1Ev) for __cxxabiv1::__enum_type_info::~__enum_type_info()
    lib_rtti_impl.o(.constdata__ZTVN10__cxxabiv116__enum_type_infoE) refers to lib_rtti_impl.o(i._ZN10__cxxabiv116__enum_type_infoD0Ev) for __cxxabiv1::__enum_type_info::~__enum_type_info__deallocating()
    lib_rtti_impl.o(.constdata__ZTVN10__cxxabiv117__class_type_infoE) refers to lib_rtti_impl.o(.constdata__ZTIN10__cxxabiv117__class_type_infoE) for typeinfo for __cxxabiv1::__class_type_info
    lib_rtti_impl.o(.constdata__ZTVN10__cxxabiv117__class_type_infoE) refers to lib_rtti_impl.o(i._ZN10__cxxabiv117__class_type_infoD1Ev) for __cxxabiv1::__class_type_info::~__class_type_info()
    lib_rtti_impl.o(.constdata__ZTVN10__cxxabiv117__class_type_infoE) refers to lib_rtti_impl.o(i._ZN10__cxxabiv117__class_type_infoD0Ev) for __cxxabiv1::__class_type_info::~__class_type_info__deallocating()
    lib_rtti_impl.o(.constdata__ZTVN10__cxxabiv120__si_class_type_infoE) refers to lib_rtti_impl.o(.constdata__ZTIN10__cxxabiv120__si_class_type_infoE) for typeinfo for __cxxabiv1::__si_class_type_info
    lib_rtti_impl.o(.constdata__ZTVN10__cxxabiv120__si_class_type_infoE) refers to lib_rtti_impl.o(i._ZN10__cxxabiv120__si_class_type_infoD1Ev) for __cxxabiv1::__si_class_type_info::~__si_class_type_info()
    lib_rtti_impl.o(.constdata__ZTVN10__cxxabiv120__si_class_type_infoE) refers to lib_rtti_impl.o(i._ZN10__cxxabiv120__si_class_type_infoD0Ev) for __cxxabiv1::__si_class_type_info::~__si_class_type_info__deallocating()
    lib_rtti_impl.o(.constdata__ZTVN10__cxxabiv121__vmi_class_type_infoE) refers to lib_rtti_impl.o(.constdata__ZTIN10__cxxabiv121__vmi_class_type_infoE) for typeinfo for __cxxabiv1::__vmi_class_type_info
    lib_rtti_impl.o(.constdata__ZTVN10__cxxabiv121__vmi_class_type_infoE) refers to lib_rtti_impl.o(i._ZN10__cxxabiv121__vmi_class_type_infoD1Ev) for __cxxabiv1::__vmi_class_type_info::~__vmi_class_type_info()
    lib_rtti_impl.o(.constdata__ZTVN10__cxxabiv121__vmi_class_type_infoE) refers to lib_rtti_impl.o(i._ZN10__cxxabiv121__vmi_class_type_infoD0Ev) for __cxxabiv1::__vmi_class_type_info::~__vmi_class_type_info__deallocating()
    lib_rtti_impl.o(.constdata__ZTVN10__cxxabiv117__pbase_type_infoE) refers to lib_rtti_impl.o(.constdata__ZTIN10__cxxabiv117__pbase_type_infoE) for typeinfo for __cxxabiv1::__pbase_type_info
    lib_rtti_impl.o(.constdata__ZTVN10__cxxabiv117__pbase_type_infoE) refers to lib_rtti_impl.o(i._ZN10__cxxabiv117__pbase_type_infoD1Ev) for __cxxabiv1::__pbase_type_info::~__pbase_type_info()
    lib_rtti_impl.o(.constdata__ZTVN10__cxxabiv117__pbase_type_infoE) refers to lib_rtti_impl.o(i._ZN10__cxxabiv117__pbase_type_infoD0Ev) for __cxxabiv1::__pbase_type_info::~__pbase_type_info__deallocating()
    lib_rtti_impl.o(.constdata__ZTVN10__cxxabiv119__pointer_type_infoE) refers to lib_rtti_impl.o(.constdata__ZTIN10__cxxabiv119__pointer_type_infoE) for typeinfo for __cxxabiv1::__pointer_type_info
    lib_rtti_impl.o(.constdata__ZTVN10__cxxabiv119__pointer_type_infoE) refers to lib_rtti_impl.o(i._ZN10__cxxabiv119__pointer_type_infoD1Ev) for __cxxabiv1::__pointer_type_info::~__pointer_type_info()
    lib_rtti_impl.o(.constdata__ZTVN10__cxxabiv119__pointer_type_infoE) refers to lib_rtti_impl.o(i._ZN10__cxxabiv119__pointer_type_infoD0Ev) for __cxxabiv1::__pointer_type_info::~__pointer_type_info__deallocating()
    lib_rtti_impl.o(.constdata__ZTVN10__cxxabiv129__pointer_to_member_type_infoE) refers to lib_rtti_impl.o(.constdata__ZTIN10__cxxabiv129__pointer_to_member_type_infoE) for typeinfo for __cxxabiv1::__pointer_to_member_type_info
    lib_rtti_impl.o(.constdata__ZTVN10__cxxabiv129__pointer_to_member_type_infoE) refers to lib_rtti_impl.o(i._ZN10__cxxabiv129__pointer_to_member_type_infoD1Ev) for __cxxabiv1::__pointer_to_member_type_info::~__pointer_to_member_type_info()
    lib_rtti_impl.o(.constdata__ZTVN10__cxxabiv129__pointer_to_member_type_infoE) refers to lib_rtti_impl.o(i._ZN10__cxxabiv129__pointer_to_member_type_infoD0Ev) for __cxxabiv1::__pointer_to_member_type_info::~__pointer_to_member_type_info__deallocating()
    lib_rtti_impl.o(.ARM.exidx) refers to lib_rtti_impl.o(i._ZNSt9type_infodlEPv) for i._ZNSt9type_infodlEPv
    lib_rtti_impl.o(.constdata__ZTIN10__cxxabiv123__fundamental_type_infoE) refers to lib_rtti_impl.o(.constdata__ZTVN10__cxxabiv120__si_class_type_infoE) for vtable for __cxxabiv1::__si_class_type_info
    lib_rtti_impl.o(.constdata__ZTIN10__cxxabiv123__fundamental_type_infoE) refers to lib_rtti_impl.o(.constdata__ZTSN10__cxxabiv123__fundamental_type_infoE) for typeinfo name for __cxxabiv1::__fundamental_type_info
    lib_rtti_impl.o(.constdata__ZTIN10__cxxabiv123__fundamental_type_infoE) refers to type_info_dtor.o(.constdata__ZTISt9type_info) for typeinfo for std::type_info
    lib_rtti_impl.o(.constdata__ZTIN10__cxxabiv117__array_type_infoE) refers to lib_rtti_impl.o(.constdata__ZTVN10__cxxabiv120__si_class_type_infoE) for vtable for __cxxabiv1::__si_class_type_info
    lib_rtti_impl.o(.constdata__ZTIN10__cxxabiv117__array_type_infoE) refers to lib_rtti_impl.o(.constdata__ZTSN10__cxxabiv117__array_type_infoE) for typeinfo name for __cxxabiv1::__array_type_info
    lib_rtti_impl.o(.constdata__ZTIN10__cxxabiv117__array_type_infoE) refers to type_info_dtor.o(.constdata__ZTISt9type_info) for typeinfo for std::type_info
    lib_rtti_impl.o(.constdata__ZTIN10__cxxabiv120__function_type_infoE) refers to lib_rtti_impl.o(.constdata__ZTVN10__cxxabiv120__si_class_type_infoE) for vtable for __cxxabiv1::__si_class_type_info
    lib_rtti_impl.o(.constdata__ZTIN10__cxxabiv120__function_type_infoE) refers to lib_rtti_impl.o(.constdata__ZTSN10__cxxabiv120__function_type_infoE) for typeinfo name for __cxxabiv1::__function_type_info
    lib_rtti_impl.o(.constdata__ZTIN10__cxxabiv120__function_type_infoE) refers to type_info_dtor.o(.constdata__ZTISt9type_info) for typeinfo for std::type_info
    lib_rtti_impl.o(.constdata__ZTIN10__cxxabiv116__enum_type_infoE) refers to lib_rtti_impl.o(.constdata__ZTVN10__cxxabiv120__si_class_type_infoE) for vtable for __cxxabiv1::__si_class_type_info
    lib_rtti_impl.o(.constdata__ZTIN10__cxxabiv116__enum_type_infoE) refers to lib_rtti_impl.o(.constdata__ZTSN10__cxxabiv116__enum_type_infoE) for typeinfo name for __cxxabiv1::__enum_type_info
    lib_rtti_impl.o(.constdata__ZTIN10__cxxabiv116__enum_type_infoE) refers to type_info_dtor.o(.constdata__ZTISt9type_info) for typeinfo for std::type_info
    lib_rtti_impl.o(.constdata__ZTIN10__cxxabiv117__class_type_infoE) refers to lib_rtti_impl.o(.constdata__ZTVN10__cxxabiv120__si_class_type_infoE) for vtable for __cxxabiv1::__si_class_type_info
    lib_rtti_impl.o(.constdata__ZTIN10__cxxabiv117__class_type_infoE) refers to lib_rtti_impl.o(.constdata__ZTSN10__cxxabiv117__class_type_infoE) for typeinfo name for __cxxabiv1::__class_type_info
    lib_rtti_impl.o(.constdata__ZTIN10__cxxabiv117__class_type_infoE) refers to type_info_dtor.o(.constdata__ZTISt9type_info) for typeinfo for std::type_info
    lib_rtti_impl.o(.constdata__ZTIN10__cxxabiv120__si_class_type_infoE) refers to lib_rtti_impl.o(.constdata__ZTVN10__cxxabiv120__si_class_type_infoE) for vtable for __cxxabiv1::__si_class_type_info
    lib_rtti_impl.o(.constdata__ZTIN10__cxxabiv120__si_class_type_infoE) refers to lib_rtti_impl.o(.constdata__ZTSN10__cxxabiv120__si_class_type_infoE) for typeinfo name for __cxxabiv1::__si_class_type_info
    lib_rtti_impl.o(.constdata__ZTIN10__cxxabiv120__si_class_type_infoE) refers to lib_rtti_impl.o(.constdata__ZTIN10__cxxabiv117__class_type_infoE) for typeinfo for __cxxabiv1::__class_type_info
    lib_rtti_impl.o(.constdata__ZTIN10__cxxabiv121__vmi_class_type_infoE) refers to lib_rtti_impl.o(.constdata__ZTVN10__cxxabiv120__si_class_type_infoE) for vtable for __cxxabiv1::__si_class_type_info
    lib_rtti_impl.o(.constdata__ZTIN10__cxxabiv121__vmi_class_type_infoE) refers to lib_rtti_impl.o(.constdata__ZTSN10__cxxabiv121__vmi_class_type_infoE) for typeinfo name for __cxxabiv1::__vmi_class_type_info
    lib_rtti_impl.o(.constdata__ZTIN10__cxxabiv121__vmi_class_type_infoE) refers to lib_rtti_impl.o(.constdata__ZTIN10__cxxabiv117__class_type_infoE) for typeinfo for __cxxabiv1::__class_type_info
    lib_rtti_impl.o(.constdata__ZTIN10__cxxabiv117__pbase_type_infoE) refers to lib_rtti_impl.o(.constdata__ZTVN10__cxxabiv120__si_class_type_infoE) for vtable for __cxxabiv1::__si_class_type_info
    lib_rtti_impl.o(.constdata__ZTIN10__cxxabiv117__pbase_type_infoE) refers to lib_rtti_impl.o(.constdata__ZTSN10__cxxabiv117__pbase_type_infoE) for typeinfo name for __cxxabiv1::__pbase_type_info
    lib_rtti_impl.o(.constdata__ZTIN10__cxxabiv117__pbase_type_infoE) refers to type_info_dtor.o(.constdata__ZTISt9type_info) for typeinfo for std::type_info
    lib_rtti_impl.o(.constdata__ZTIN10__cxxabiv119__pointer_type_infoE) refers to lib_rtti_impl.o(.constdata__ZTVN10__cxxabiv120__si_class_type_infoE) for vtable for __cxxabiv1::__si_class_type_info
    lib_rtti_impl.o(.constdata__ZTIN10__cxxabiv119__pointer_type_infoE) refers to lib_rtti_impl.o(.constdata__ZTSN10__cxxabiv119__pointer_type_infoE) for typeinfo name for __cxxabiv1::__pointer_type_info
    lib_rtti_impl.o(.constdata__ZTIN10__cxxabiv119__pointer_type_infoE) refers to lib_rtti_impl.o(.constdata__ZTIN10__cxxabiv117__pbase_type_infoE) for typeinfo for __cxxabiv1::__pbase_type_info
    lib_rtti_impl.o(.constdata__ZTIN10__cxxabiv129__pointer_to_member_type_infoE) refers to lib_rtti_impl.o(.constdata__ZTVN10__cxxabiv120__si_class_type_infoE) for vtable for __cxxabiv1::__si_class_type_info
    lib_rtti_impl.o(.constdata__ZTIN10__cxxabiv129__pointer_to_member_type_infoE) refers to lib_rtti_impl.o(.constdata__ZTSN10__cxxabiv129__pointer_to_member_type_infoE) for typeinfo name for __cxxabiv1::__pointer_to_member_type_info
    lib_rtti_impl.o(.constdata__ZTIN10__cxxabiv129__pointer_to_member_type_infoE) refers to lib_rtti_impl.o(.constdata__ZTIN10__cxxabiv117__pbase_type_infoE) for typeinfo for __cxxabiv1::__pbase_type_info
    lib_rtti_impl.o(i.__ARM_common_noexcept_landing) refers to arm_exceptions_callterm.o(.text) for __cxa_call_terminate
    lib_rtti_impl.o(.ARM.exidx) refers to lib_rtti_impl.o(i.__ARM_common_noexcept_landing) for i.__ARM_common_noexcept_landing
    type_info_dtor.o(.constdata__ZTVSt9type_info) refers to type_info_dtor.o(.constdata__ZTISt9type_info) for typeinfo for std::type_info
    type_info_dtor.o(.constdata__ZTVSt9type_info) refers to type_info_dtor.o(i._ZNSt9type_infoD1Ev) for std::type_info::~type_info()
    type_info_dtor.o(.constdata__ZTVSt9type_info) refers to type_info_dtor.o(i._ZNSt9type_infoD0Ev) for std::type_info::~type_info__deallocating()
    type_info_dtor.o(.constdata__ZTISt9type_info) refers to lib_rtti_impl.o(.constdata__ZTVN10__cxxabiv117__class_type_infoE) for vtable for __cxxabiv1::__class_type_info
    type_info_dtor.o(.constdata__ZTISt9type_info) refers to type_info_dtor.o(.constdata__ZTSSt9type_info) for typeinfo name for std::type_info
    scanf_fp.o(i._is_digit) refers (Special) to iusefp.o(.text) for __I$use$fp


==============================================================================

Removing Unused input sections from the image.

    Removing blinky.o(.rev16_text), (4 bytes).
    Removing blinky.o(.revsh_text), (4 bytes).
    Removing blinky.o(.emb_text), (30 bytes).
    Removing blinky.o(.ARM.exidx), (8 bytes).
    Removing blinky.o(.ARM.exidx), (8 bytes).
    Removing blinky.o(.ARM.exidx), (8 bytes).
    Removing hooks.o(i._Z11sysTickHookv), (4 bytes).
    Removing hooks.o(i._Z5yieldv), (2 bytes).
    Removing hooks.o(i._Z7svcHookv), (2 bytes).
    Removing hooks.o(.ARM.exidx), (8 bytes).
    Removing hooks.o(.ARM.exidx), (8 bytes).
    Removing hooks.o(.ARM.exidx), (8 bytes).
    Removing itoa.o(i.itoa), (8 bytes).
    Removing itoa.o(i.ltoa), (108 bytes).
    Removing itoa.o(i.ultoa), (80 bytes).
    Removing itoa.o(i.utoa), (8 bytes).
    Removing itoa.o(.ARM.exidx), (8 bytes).
    Removing itoa.o(.ARM.exidx), (8 bytes).
    Removing itoa.o(.ARM.exidx), (8 bytes).
    Removing itoa.o(.ARM.exidx), (8 bytes).
    Removing main.o(.rev16_text), (4 bytes).
    Removing main.o(.revsh_text), (4 bytes).
    Removing main.o(.emb_text), (30 bytes).
    Removing main.o(.ARM.exidx), (8 bytes).
    Removing main.o(.ARM.exidx), (8 bytes).
    Removing new.o(i._ZdaPv), (8 bytes).
    Removing new.o(i._ZdlPv), (8 bytes).
    Removing new.o(i._Znaj), (8 bytes).
    Removing new.o(i._Znwj), (8 bytes).
    Removing new.o(.ARM.exidx), (8 bytes).
    Removing new.o(.ARM.exidx), (8 bytes).
    Removing new.o(.ARM.exidx), (8 bytes).
    Removing new.o(.ARM.exidx), (8 bytes).
    Removing print.o(.rev16_text), (4 bytes).
    Removing print.o(.revsh_text), (4 bytes).
    Removing print.o(.emb_text), (30 bytes).
    Removing print.o(i._ZN5Print10printFloatEdh), (328 bytes).
    Removing print.o(i._ZN5Print11printNumberEmh), (74 bytes).
    Removing print.o(i._ZN5Print5printEPK19__FlashStringHelper), (8 bytes).
    Removing print.o(i._ZN5Print5printEPKc), (8 bytes).
    Removing print.o(i._ZN5Print5printERK6String), (46 bytes).
    Removing print.o(i._ZN5Print5printERK9Printable), (12 bytes).
    Removing print.o(i._ZN5Print5printEc), (6 bytes).
    Removing print.o(i._ZN5Print5printEdi), (14 bytes).
    Removing print.o(i._ZN5Print5printEhi), (8 bytes).
    Removing print.o(i._ZN5Print5printEii), (8 bytes).
    Removing print.o(i._ZN5Print5printEji), (8 bytes).
    Removing print.o(i._ZN5Print5printEli), (64 bytes).
    Removing print.o(i._ZN5Print5printEmi), (24 bytes).
    Removing print.o(i._ZN5Print5writeEPKhj), (34 bytes).
    Removing print.o(i._ZN5Print7printlnEPK19__FlashStringHelper), (20 bytes).
    Removing print.o(i._ZN5Print7printlnEPKc), (20 bytes).
    Removing print.o(i._ZN5Print7printlnERK6String), (20 bytes).
    Removing print.o(i._ZN5Print7printlnERK9Printable), (20 bytes).
    Removing print.o(i._ZN5Print7printlnEc), (20 bytes).
    Removing print.o(i._ZN5Print7printlnEdi), (26 bytes).
    Removing print.o(i._ZN5Print7printlnEhi), (20 bytes).
    Removing print.o(i._ZN5Print7printlnEii), (20 bytes).
    Removing print.o(i._ZN5Print7printlnEji), (20 bytes).
    Removing print.o(i._ZN5Print7printlnEli), (20 bytes).
    Removing print.o(i._ZN5Print7printlnEmi), (20 bytes).
    Removing print.o(i._ZN5Print7printlnEv), (24 bytes).
    Removing print.o(.ARM.exidx), (8 bytes).
    Removing print.o(.ARM.exidx), (8 bytes).
    Removing print.o(.ARM.exidx), (8 bytes).
    Removing print.o(.ARM.exidx), (8 bytes).
    Removing print.o(.ARM.exidx), (8 bytes).
    Removing print.o(.ARM.exidx), (8 bytes).
    Removing print.o(.ARM.exidx), (8 bytes).
    Removing print.o(.ARM.exidx), (8 bytes).
    Removing print.o(.ARM.exidx), (8 bytes).
    Removing print.o(.ARM.exidx), (8 bytes).
    Removing print.o(.ARM.exidx), (8 bytes).
    Removing print.o(.ARM.exidx), (8 bytes).
    Removing print.o(.ARM.exidx), (8 bytes).
    Removing print.o(.ARM.exidx), (8 bytes).
    Removing print.o(.ARM.exidx), (8 bytes).
    Removing print.o(.ARM.exidx), (8 bytes).
    Removing print.o(.ARM.exidx), (8 bytes).
    Removing print.o(.ARM.exidx), (8 bytes).
    Removing print.o(.ARM.exidx), (8 bytes).
    Removing print.o(.ARM.exidx), (8 bytes).
    Removing print.o(.ARM.exidx), (8 bytes).
    Removing print.o(.ARM.exidx), (8 bytes).
    Removing print.o(.ARM.exidx), (8 bytes).
    Removing print.o(.ARM.exidx), (8 bytes).
    Removing print.o(.ARM.exidx), (8 bytes).
    Removing print.o(.ARM.exidx), (8 bytes).
    Removing ringbuffer.o(i._ZN10RingBuffer10store_charEh), (22 bytes).
    Removing ringbuffer.o(.ARM.exidx), (8 bytes).
    Removing ringbuffer.o(.ARM.exidx), (8 bytes).
    Removing stream.o(.rev16_text), (4 bytes).
    Removing stream.o(.revsh_text), (4 bytes).
    Removing stream.o(.emb_text), (30 bytes).
    Removing stream.o(i._ZN6Stream10parseFloatEc), (164 bytes).
    Removing stream.o(i._ZN6Stream10parseFloatEv), (10 bytes).
    Removing stream.o(i._ZN6Stream10readStringEv), (40 bytes).
    Removing stream.o(i._ZN6Stream10setTimeoutEm), (4 bytes).
    Removing stream.o(i._ZN6Stream13peekNextDigitEv), (38 bytes).
    Removing stream.o(i._ZN6Stream14readBytesUntilEcPcj), (50 bytes).
    Removing stream.o(i._ZN6Stream15readStringUntilEc), (44 bytes).
    Removing stream.o(i._ZN6Stream4findEPc), (36 bytes).
    Removing stream.o(i._ZN6Stream4findEPcj), (12 bytes).
    Removing stream.o(i._ZN6Stream8parseIntEc), (86 bytes).
    Removing stream.o(i._ZN6Stream8parseIntEv), (10 bytes).
    Removing stream.o(i._ZN6Stream9findUntilEPcS0_), (38 bytes).
    Removing stream.o(i._ZN6Stream9findUntilEPcjS0_j), (84 bytes).
    Removing stream.o(i._ZN6Stream9readBytesEPcj), (36 bytes).
    Removing stream.o(i._ZN6Stream9timedPeekEv), (42 bytes).
    Removing stream.o(i._ZN6Stream9timedReadEv), (42 bytes).
    Removing stream.o(.ARM.exidx), (8 bytes).
    Removing stream.o(.ARM.exidx), (8 bytes).
    Removing stream.o(.ARM.exidx), (8 bytes).
    Removing stream.o(.ARM.exidx), (8 bytes).
    Removing stream.o(.ARM.exidx), (8 bytes).
    Removing stream.o(.ARM.exidx), (8 bytes).
    Removing stream.o(.ARM.exidx), (8 bytes).
    Removing stream.o(.ARM.exidx), (8 bytes).
    Removing stream.o(.ARM.exidx), (8 bytes).
    Removing stream.o(.ARM.exidx), (8 bytes).
    Removing stream.o(.ARM.exidx), (8 bytes).
    Removing stream.o(.ARM.exidx), (8 bytes).
    Removing stream.o(.ARM.exidx), (8 bytes).
    Removing stream.o(.ARM.exidx), (8 bytes).
    Removing stream.o(.ARM.exidx), (8 bytes).
    Removing stream.o(.ARM.exidx), (8 bytes).
    Removing tone.o(.rev16_text), (4 bytes).
    Removing tone.o(.revsh_text), (4 bytes).
    Removing tone.o(.emb_text), (30 bytes).
    Removing tone.o(i._Z14TIMER2_handlerv), (44 bytes).
    Removing tone.o(i._Z4tonejt), (10 bytes).
    Removing tone.o(i._Z4tonejtj), (336 bytes).
    Removing tone.o(i._Z6noTonej), (88 bytes).
    Removing tone.o(.ARM.exidx), (8 bytes).
    Removing tone.o(.ARM.exidx), (8 bytes).
    Removing tone.o(.ARM.exidx), (8 bytes).
    Removing tone.o(.ARM.exidx), (8 bytes).
    Removing tone.o(.data), (12 bytes).
    Removing uartclass.o(.rev16_text), (4 bytes).
    Removing uartclass.o(.revsh_text), (4 bytes).
    Removing uartclass.o(.emb_text), (30 bytes).
    Removing uartclass.o(i._ZN9UARTClass10IrqHandlerEv), (48 bytes).
    Removing uartclass.o(i._ZN9UARTClass10irq_attachEPFvvE), (4 bytes).
    Removing uartclass.o(i._ZN9UARTClass3endEv), (16 bytes).
    Removing uartclass.o(i._ZN9UARTClass4peekEv), (20 bytes).
    Removing uartclass.o(i._ZN9UARTClass4readEv), (28 bytes).
    Removing uartclass.o(i._ZN9UARTClass5beginEj), (14 bytes).
    Removing uartclass.o(i._ZN9UARTClass5beginEjjj), (32 bytes).
    Removing uartclass.o(i._ZN9UARTClass5flushEv), (8 bytes).
    Removing uartclass.o(i._ZN9UARTClass5writeEh), (12 bytes).
    Removing uartclass.o(i._ZN9UARTClass9availableEv), (14 bytes).
    Removing uartclass.o(.ARM.exidx), (8 bytes).
    Removing uartclass.o(.ARM.exidx), (8 bytes).
    Removing uartclass.o(.ARM.exidx), (8 bytes).
    Removing uartclass.o(.ARM.exidx), (8 bytes).
    Removing uartclass.o(.ARM.exidx), (8 bytes).
    Removing uartclass.o(.ARM.exidx), (8 bytes).
    Removing uartclass.o(.ARM.exidx), (8 bytes).
    Removing uartclass.o(.ARM.exidx), (8 bytes).
    Removing uartclass.o(.ARM.exidx), (8 bytes).
    Removing uartclass.o(.ARM.exidx), (8 bytes).
    Removing uartclass.o(.ARM.exidx), (8 bytes).
    Removing winterrupts.o(.rev16_text), (4 bytes).
    Removing winterrupts.o(.revsh_text), (4 bytes).
    Removing winterrupts.o(.emb_text), (30 bytes).
    Removing winterrupts.o(i.LinkInterrupt), (2 bytes).
    Removing winterrupts.o(i._Z14GPIOTE_handlerv), (120 bytes).
    Removing winterrupts.o(i._Z20delay_ex_interrupterj), (30 bytes).
    Removing winterrupts.o(i.attachInterrupt), (420 bytes).
    Removing winterrupts.o(i.detachInterrupt), (116 bytes).
    Removing winterrupts.o(.ARM.exidx), (8 bytes).
    Removing winterrupts.o(.ARM.exidx), (8 bytes).
    Removing winterrupts.o(.ARM.exidx), (8 bytes).
    Removing winterrupts.o(.ARM.exidx), (8 bytes).
    Removing winterrupts.o(.ARM.exidx), (8 bytes).
    Removing winterrupts.o(.ARM.exidx), (8 bytes).
    Removing winterrupts.o(.bss), (16 bytes).
    Removing winterrupts.o(.data), (24 bytes).
    Removing wiring.o(.rev16_text), (4 bytes).
    Removing wiring.o(.revsh_text), (4 bytes).
    Removing wiring.o(.emb_text), (30 bytes).
    Removing wiring.o(i.delayMicroseconds), (8 bytes).
    Removing wiring.o(i.micros), (8 bytes).
    Removing wiring.o(i.micros64), (48 bytes).
    Removing wiring.o(i.millis), (8 bytes).
    Removing wiring.o(i.millis64), (48 bytes).
    Removing wiring.o(i.rtc_timer_init), (92 bytes).
    Removing wiring.o(i.rtc_timout_timer_handle), (2 bytes).
    Removing wiring.o(i.timer_error_check), (32 bytes).
    Removing wiring.o(.ARM.exidx), (8 bytes).
    Removing wiring.o(.ARM.exidx), (8 bytes).
    Removing wiring.o(.ARM.exidx), (8 bytes).
    Removing wiring.o(.ARM.exidx), (8 bytes).
    Removing wiring.o(.ARM.exidx), (8 bytes).
    Removing wiring.o(.ARM.exidx), (8 bytes).
    Removing wiring.o(.ARM.exidx), (8 bytes).
    Removing wiring.o(.ARM.exidx), (8 bytes).
    Removing wiring.o(.ARM.exidx), (8 bytes).
    Removing wiring.o(.bss), (616 bytes).
    Removing wiring.o(.data), (16 bytes).
    Removing wiring_analog.o(.rev16_text), (4 bytes).
    Removing wiring_analog.o(.revsh_text), (4 bytes).
    Removing wiring_analog.o(.emb_text), (30 bytes).
    Removing wiring_analog.o(i.GPIOTE_Channel_Find), (28 bytes).
    Removing wiring_analog.o(i.GPIOTE_Channel_Set), (12 bytes).
    Removing wiring_analog.o(i.PPI_ON_TIMER_GPIO), (116 bytes).
    Removing wiring_analog.o(i._Z14TIMER1_handlerv), (160 bytes).
    Removing wiring_analog.o(i._Z16update_PWM_valuejjj), (64 bytes).
    Removing wiring_analog.o(i._Z21conversion_Resolutionjjj), (20 bytes).
    Removing wiring_analog.o(i._Z22nrf_gpiote_task_configjj21nrf_gpiote_polarity_t20nrf_gpiote_outinit_t), (88 bytes).
    Removing wiring_analog.o(i.analogInpselType), (32 bytes).
    Removing wiring_analog.o(i.analogRead), (116 bytes).
    Removing wiring_analog.o(i.analogReadResolution), (16 bytes).
    Removing wiring_analog.o(i.analogReference), (36 bytes).
    Removing wiring_analog.o(i.analogWrite), (608 bytes).
    Removing wiring_analog.o(i.analogWriteResolution), (16 bytes).
    Removing wiring_analog.o(i.find_free_PPI_channel), (48 bytes).
    Removing wiring_analog.o(.ARM.exidx), (8 bytes).
    Removing wiring_analog.o(.ARM.exidx), (8 bytes).
    Removing wiring_analog.o(.ARM.exidx), (8 bytes).
    Removing wiring_analog.o(.ARM.exidx), (8 bytes).
    Removing wiring_analog.o(.ARM.exidx), (8 bytes).
    Removing wiring_analog.o(.ARM.exidx), (8 bytes).
    Removing wiring_analog.o(.ARM.exidx), (8 bytes).
    Removing wiring_analog.o(.ARM.exidx), (8 bytes).
    Removing wiring_analog.o(.ARM.exidx), (8 bytes).
    Removing wiring_analog.o(.ARM.exidx), (8 bytes).
    Removing wiring_analog.o(.ARM.exidx), (8 bytes).
    Removing wiring_analog.o(.ARM.exidx), (8 bytes).
    Removing wiring_analog.o(.ARM.exidx), (8 bytes).
    Removing wiring_analog.o(.ARM.exidx), (8 bytes).
    Removing wiring_analog.o(.ARM.exidx), (8 bytes).
    Removing wiring_analog.o(.ARM.exidx), (8 bytes).
    Removing wiring_digital.o(.rev16_text), (4 bytes).
    Removing wiring_digital.o(.revsh_text), (4 bytes).
    Removing wiring_digital.o(.emb_text), (30 bytes).
    Removing wiring_digital.o(i.digitalRead), (36 bytes).
    Removing wiring_digital.o(.ARM.exidx), (8 bytes).
    Removing wiring_digital.o(.ARM.exidx), (8 bytes).
    Removing wiring_digital.o(.ARM.exidx), (8 bytes).
    Removing wiring_pulse.o(.rev16_text), (4 bytes).
    Removing wiring_pulse.o(.revsh_text), (4 bytes).
    Removing wiring_pulse.o(.emb_text), (30 bytes).
    Removing wiring_pulse.o(i.pulseIn), (112 bytes).
    Removing wiring_pulse.o(.ARM.exidx), (8 bytes).
    Removing wiring_shift.o(.rev16_text), (4 bytes).
    Removing wiring_shift.o(.revsh_text), (4 bytes).
    Removing wiring_shift.o(.emb_text), (30 bytes).
    Removing wiring_shift.o(i.shiftIn), (64 bytes).
    Removing wiring_shift.o(i.shiftOut), (74 bytes).
    Removing wiring_shift.o(.ARM.exidx), (8 bytes).
    Removing wiring_shift.o(.ARM.exidx), (8 bytes).
    Removing wmath.o(i._Z10randomSeedj), (12 bytes).
    Removing wmath.o(i._Z3maplllll), (22 bytes).
    Removing wmath.o(i._Z6randoml), (24 bytes).
    Removing wmath.o(i._Z6randomll), (18 bytes).
    Removing wmath.o(i._Z8makeWordhh), (6 bytes).
    Removing wmath.o(i._Z8makeWordt), (2 bytes).
    Removing wmath.o(.ARM.exidx), (8 bytes).
    Removing wmath.o(.ARM.exidx), (8 bytes).
    Removing wmath.o(.ARM.exidx), (8 bytes).
    Removing wmath.o(.ARM.exidx), (8 bytes).
    Removing wmath.o(.ARM.exidx), (8 bytes).
    Removing wmath.o(.ARM.exidx), (8 bytes).
    Removing wstring.o(i._ZN6String10invalidateEv), (24 bytes).
    Removing wstring.o(i._ZN6String11toLowerCaseEv), (26 bytes).
    Removing wstring.o(i._ZN6String11toUpperCaseEv), (26 bytes).
    Removing wstring.o(i._ZN6String12changeBufferEj), (24 bytes).
    Removing wstring.o(i._ZN6String4copyEPKcj), (40 bytes).
    Removing wstring.o(i._ZN6String4trimEv), (80 bytes).
    Removing wstring.o(i._ZN6String6concatEPKc), (30 bytes).
    Removing wstring.o(i._ZN6String6concatEPKcj), (52 bytes).
    Removing wstring.o(i._ZN6String6concatERKS_), (12 bytes).
    Removing wstring.o(i._ZN6String6concatEc), (20 bytes).
    Removing wstring.o(i._ZN6String6concatEd), (44 bytes).
    Removing wstring.o(i._ZN6String6concatEf), (44 bytes).
    Removing wstring.o(i._ZN6String6concatEh), (34 bytes).
    Removing wstring.o(i._ZN6String6concatEi), (36 bytes).
    Removing wstring.o(i._ZN6String6concatEj), (36 bytes).
    Removing wstring.o(i._ZN6String6concatEl), (36 bytes).
    Removing wstring.o(i._ZN6String6concatEm), (36 bytes).
    Removing wstring.o(i._ZN6String6removeEj), (12 bytes).
    Removing wstring.o(i._ZN6String6removeEjj), (54 bytes).
    Removing wstring.o(i._ZN6String7replaceERKS_S1_), (268 bytes).
    Removing wstring.o(i._ZN6String7replaceEcc), (24 bytes).
    Removing wstring.o(i._ZN6String7reserveEj), (40 bytes).
    Removing wstring.o(i._ZN6String9setCharAtEjc), (12 bytes).
    Removing wstring.o(i._ZN6StringC1EPKc), (34 bytes).
    Removing wstring.o(i._ZN6StringC1ERKS_), (22 bytes).
    Removing wstring.o(i._ZN6StringC1Ec), (30 bytes).
    Removing wstring.o(i._ZN6StringC1Edh), (48 bytes).
    Removing wstring.o(i._ZN6StringC1Efh), (48 bytes).
    Removing wstring.o(i._ZN6StringC1Ehh), (34 bytes).
    Removing wstring.o(i._ZN6StringC1Eih), (38 bytes).
    Removing wstring.o(i._ZN6StringC1Ejh), (38 bytes).
    Removing wstring.o(i._ZN6StringC1Elh), (38 bytes).
    Removing wstring.o(i._ZN6StringC1Emh), (38 bytes).
    Removing wstring.o(i._ZN6StringD1Ev), (14 bytes).
    Removing wstring.o(i._ZN6StringaSEPKc), (34 bytes).
    Removing wstring.o(i._ZN6StringaSERKS_), (36 bytes).
    Removing wstring.o(i._ZN6StringixEj), (32 bytes).
    Removing wstring.o(i._ZNK6String10startsWithERKS_), (22 bytes).
    Removing wstring.o(i._ZNK6String10startsWithERKS_j), (44 bytes).
    Removing wstring.o(i._ZNK6String11lastIndexOfERKS_), (14 bytes).
    Removing wstring.o(i._ZNK6String11lastIndexOfERKS_j), (72 bytes).
    Removing wstring.o(i._ZNK6String11lastIndexOfEc), (12 bytes).
    Removing wstring.o(i._ZNK6String11lastIndexOfEcj), (48 bytes).
    Removing wstring.o(i._ZNK6String16equalsIgnoreCaseERKS_), (58 bytes).
    Removing wstring.o(i._ZNK6String5toIntEv), (14 bytes).
    Removing wstring.o(i._ZNK6String6charAtEj), (8 bytes).
    Removing wstring.o(i._ZNK6String6equalsEPKc), (42 bytes).
    Removing wstring.o(i._ZNK6String6equalsERKS_), (26 bytes).
    Removing wstring.o(i._ZNK6String7indexOfERKS_), (10 bytes).
    Removing wstring.o(i._ZNK6String7indexOfERKS_j), (38 bytes).
    Removing wstring.o(i._ZNK6String7indexOfEc), (10 bytes).
    Removing wstring.o(i._ZNK6String7indexOfEcj), (36 bytes).
    Removing wstring.o(i._ZNK6String7toFloatEv), (18 bytes).
    Removing wstring.o(i._ZNK6String8endsWithERKS_), (42 bytes).
    Removing wstring.o(i._ZNK6String8getBytesEPhjj), (50 bytes).
    Removing wstring.o(i._ZNK6String9compareToERKS_), (58 bytes).
    Removing wstring.o(i._ZNK6String9substringEjj), (60 bytes).
    Removing wstring.o(i._ZNK6StringgeERKS_), (12 bytes).
    Removing wstring.o(i._ZNK6StringgtERKS_), (18 bytes).
    Removing wstring.o(i._ZNK6StringixEj), (20 bytes).
    Removing wstring.o(i._ZNK6StringleERKS_), (18 bytes).
    Removing wstring.o(i._ZNK6StringltERKS_), (10 bytes).
    Removing wstring.o(i._ZplRK15StringSumHelperPKc), (38 bytes).
    Removing wstring.o(i._ZplRK15StringSumHelperRK6String), (26 bytes).
    Removing wstring.o(i._ZplRK15StringSumHelperc), (22 bytes).
    Removing wstring.o(i._ZplRK15StringSumHelperd), (22 bytes).
    Removing wstring.o(i._ZplRK15StringSumHelperf), (22 bytes).
    Removing wstring.o(i._ZplRK15StringSumHelperh), (22 bytes).
    Removing wstring.o(i._ZplRK15StringSumHelperi), (22 bytes).
    Removing wstring.o(i._ZplRK15StringSumHelperj), (22 bytes).
    Removing wstring.o(i._ZplRK15StringSumHelperl), (22 bytes).
    Removing wstring.o(i._ZplRK15StringSumHelperm), (22 bytes).
    Removing wstring.o(.ARM.exidx), (8 bytes).
    Removing wstring.o(.ARM.exidx), (8 bytes).
    Removing wstring.o(.ARM.exidx), (8 bytes).
    Removing wstring.o(.ARM.exidx), (8 bytes).
    Removing wstring.o(.ARM.exidx), (8 bytes).
    Removing wstring.o(.ARM.exidx), (8 bytes).
    Removing wstring.o(.ARM.exidx), (8 bytes).
    Removing wstring.o(.ARM.exidx), (8 bytes).
    Removing wstring.o(.ARM.exidx), (8 bytes).
    Removing wstring.o(.ARM.exidx), (8 bytes).
    Removing wstring.o(.ARM.exidx), (8 bytes).
    Removing wstring.o(.ARM.exidx), (8 bytes).
    Removing wstring.o(.ARM.exidx), (8 bytes).
    Removing wstring.o(.ARM.exidx), (8 bytes).
    Removing wstring.o(.ARM.exidx), (8 bytes).
    Removing wstring.o(.ARM.exidx), (8 bytes).
    Removing wstring.o(.ARM.exidx), (8 bytes).
    Removing wstring.o(.ARM.exidx), (8 bytes).
    Removing wstring.o(.ARM.exidx), (8 bytes).
    Removing wstring.o(.ARM.exidx), (8 bytes).
    Removing wstring.o(.ARM.exidx), (8 bytes).
    Removing wstring.o(.ARM.exidx), (8 bytes).
    Removing wstring.o(.ARM.exidx), (8 bytes).
    Removing wstring.o(.ARM.exidx), (8 bytes).
    Removing wstring.o(.ARM.exidx), (8 bytes).
    Removing wstring.o(.ARM.exidx), (8 bytes).
    Removing wstring.o(.ARM.exidx), (8 bytes).
    Removing wstring.o(.ARM.exidx), (8 bytes).
    Removing wstring.o(.ARM.exidx), (8 bytes).
    Removing wstring.o(.ARM.exidx), (8 bytes).
    Removing wstring.o(.ARM.exidx), (8 bytes).
    Removing wstring.o(.ARM.exidx), (8 bytes).
    Removing wstring.o(.ARM.exidx), (8 bytes).
    Removing wstring.o(.ARM.exidx), (8 bytes).
    Removing wstring.o(.ARM.exidx), (8 bytes).
    Removing wstring.o(.ARM.exidx), (8 bytes).
    Removing wstring.o(.ARM.exidx), (8 bytes).
    Removing wstring.o(.ARM.exidx), (8 bytes).
    Removing wstring.o(.ARM.exidx), (8 bytes).
    Removing wstring.o(.ARM.exidx), (8 bytes).
    Removing wstring.o(.ARM.exidx), (8 bytes).
    Removing wstring.o(.ARM.exidx), (8 bytes).
    Removing wstring.o(.ARM.exidx), (8 bytes).
    Removing wstring.o(.ARM.exidx), (8 bytes).
    Removing wstring.o(.ARM.exidx), (8 bytes).
    Removing wstring.o(.ARM.exidx), (8 bytes).
    Removing wstring.o(.ARM.exidx), (8 bytes).
    Removing wstring.o(.ARM.exidx), (8 bytes).
    Removing wstring.o(.ARM.exidx), (8 bytes).
    Removing wstring.o(.ARM.exidx), (8 bytes).
    Removing wstring.o(.ARM.exidx), (8 bytes).
    Removing wstring.o(.ARM.exidx), (8 bytes).
    Removing wstring.o(.ARM.exidx), (8 bytes).
    Removing wstring.o(.ARM.exidx), (8 bytes).
    Removing wstring.o(.ARM.exidx), (8 bytes).
    Removing wstring.o(.ARM.exidx), (8 bytes).
    Removing wstring.o(.ARM.exidx), (8 bytes).
    Removing wstring.o(.ARM.exidx), (8 bytes).
    Removing wstring.o(.ARM.exidx), (8 bytes).
    Removing wstring.o(.ARM.exidx), (8 bytes).
    Removing wstring.o(.ARM.exidx), (8 bytes).
    Removing wstring.o(.ARM.exidx), (8 bytes).
    Removing wstring.o(.ARM.exidx), (8 bytes).
    Removing wstring.o(.ARM.exidx), (8 bytes).
    Removing wstring.o(.ARM.exidx), (8 bytes).
    Removing wstring.o(.ARM.exidx), (8 bytes).
    Removing wstring.o(.ARM.exidx), (8 bytes).
    Removing wstring.o(.ARM.exidx), (8 bytes).
    Removing wstring.o(.ARM.exidx), (8 bytes).
    Removing wstring.o(.ARM.exidx), (8 bytes).
    Removing wstring.o(.ARM.exidx), (8 bytes).
    Removing wstring.o(.ARM.exidx), (8 bytes).
    Removing wstring.o(.data), (1 bytes).
    Removing wuart.o(.rev16_text), (4 bytes).
    Removing wuart.o(.revsh_text), (4 bytes).
    Removing wuart.o(.emb_text), (30 bytes).
    Removing wuart.o(i._Z10UART0_Stopv), (72 bytes).
    Removing wuart.o(i._Z11UART0_Startjjj), (388 bytes).
    Removing wuart.o(i._Z13UART0_handlerv), (16 bytes).
    Removing wuart.o(i._Z16UART0_ReadRXDatev), (12 bytes).
    Removing wuart.o(i._Z17UART0_ReadRXStatev), (12 bytes).
    Removing wuart.o(i._Z18UART0_CheckRXErrorv), (36 bytes).
    Removing wuart.o(i._Z18UART0_ClearRXStatev), (12 bytes).
    Removing wuart.o(i._Z18UART0_WaitTXFinishv), (28 bytes).
    Removing wuart.o(i._Z8UART0_RXv), (40 bytes).
    Removing wuart.o(i._Z8UART0_TXh), (48 bytes).
    Removing wuart.o(.ARM.exidx), (8 bytes).
    Removing wuart.o(.ARM.exidx), (8 bytes).
    Removing wuart.o(.ARM.exidx), (8 bytes).
    Removing wuart.o(.ARM.exidx), (8 bytes).
    Removing wuart.o(.ARM.exidx), (8 bytes).
    Removing wuart.o(.ARM.exidx), (8 bytes).
    Removing wuart.o(.ARM.exidx), (8 bytes).
    Removing wuart.o(.ARM.exidx), (8 bytes).
    Removing wuart.o(.ARM.exidx), (8 bytes).
    Removing wuart.o(.ARM.exidx), (8 bytes).
    Removing wuart.o(.ARM.exidx), (8 bytes).
    Removing wuart.o(.data), (1 bytes).
    Removing dtoa.o(i.dtoa), (48 bytes).
    Removing dtoa.o(.ARM.exidx), (8 bytes).
    Removing app_error_check.o(.rev16_text), (4 bytes).
    Removing app_error_check.o(.revsh_text), (4 bytes).
    Removing app_error_check.o(.emb_text), (30 bytes).
    Removing app_error_check.o(i._Z17app_error_handlerjjPKh), (24 bytes).
    Removing app_error_check.o(.ARM.exidx), (8 bytes).
    Removing pin_transform.o(.rev16_text), (4 bytes).
    Removing pin_transform.o(.revsh_text), (4 bytes).
    Removing pin_transform.o(.emb_text), (30 bytes).
    Removing pin_transform.o(.ARM.exidx), (8 bytes).
    Removing variant.o(.rev16_text), (4 bytes).
    Removing variant.o(.revsh_text), (4 bytes).
    Removing variant.o(.emb_text), (30 bytes).
    Removing variant.o(.ARM.exidx), (8 bytes).
    Removing variant.o(.ARM.exidx), (8 bytes).
    Removing arm_startup_nrf51.o(HEAP), (2048 bytes).
    Removing system_nrf51.o(.rev16_text), (4 bytes).
    Removing system_nrf51.o(.revsh_text), (4 bytes).
    Removing system_nrf51.o(i.SystemCoreClockUpdate), (16 bytes).
    Removing system_nrf51.o(.ARM.exidx), (8 bytes).
    Removing system_nrf51.o(.ARM.exidx), (8 bytes).
    Removing system_nrf51.o(.ARM.exidx), (8 bytes).
    Removing nrf_delay.o(.rev16_text), (4 bytes).
    Removing nrf_delay.o(.revsh_text), (4 bytes).
    Removing nrf_delay.o(.ARM.exidx), (8 bytes).
    Removing app_error.o(.rev16_text), (4 bytes).
    Removing app_error.o(.revsh_text), (4 bytes).
    Removing app_error.o(i._Z17app_error_handlerjjPKh), (24 bytes).
    Removing app_error.o(.ARM.exidx), (8 bytes).
    Removing app_scheduler.o(.rev16_text), (4 bytes).
    Removing app_scheduler.o(.revsh_text), (4 bytes).
    Removing app_scheduler.o(i._Z14app_sched_initttPv), (44 bytes).
    Removing app_scheduler.o(i._Z17app_sched_executev), (30 bytes).
    Removing app_scheduler.o(i._Z19app_sched_event_getPPvPtPPFvS_tE), (68 bytes).
    Removing app_scheduler.o(i._Z19app_sched_event_putPvtPFvS_tE), (136 bytes).
    Removing app_scheduler.o(.ARM.exidx), (8 bytes).
    Removing app_scheduler.o(.ARM.exidx), (8 bytes).
    Removing app_scheduler.o(.ARM.exidx), (8 bytes).
    Removing app_scheduler.o(.ARM.exidx), (8 bytes).
    Removing app_scheduler.o(.data), (16 bytes).
    Removing app_timer.o(.rev16_text), (4 bytes).
    Removing app_timer.o(.revsh_text), (4 bytes).
    Removing app_timer.o(.emb_text), (30 bytes).
    Removing app_timer.o(i._Z11user_id_getv), (84 bytes).
    Removing app_timer.o(i._Z13user_op_allocP12timer_user_tPj), (36 bytes).
    Removing app_timer.o(i._Z14app_timer_initjhhPvPFjPFvS_ES_E), (176 bytes).
    Removing app_timer.o(i._Z14app_timer_stopj), (88 bytes).
    Removing app_timer.o(i._Z15RTC1_IRQHandlerv), (32 bytes).
    Removing app_timer.o(i._Z15SWI0_IRQHandlerv), (84 bytes).
    Removing app_timer.o(i._Z15app_timer_startjjPv), (132 bytes).
    Removing app_timer.o(i._Z16NVIC_SetPriority9IRQn_Typej), (68 bytes).
    Removing app_timer.o(i._Z16app_timer_createPj16app_timer_mode_tPFvPvE), (76 bytes).
    Removing app_timer.o(i._Z17app_timer_cnt_getPj), (16 bytes).
    Removing app_timer.o(i._Z17timer_list_insertj), (100 bytes).
    Removing app_timer.o(i._Z17timer_list_removej), (112 bytes).
    Removing app_timer.o(i._Z18app_timer_stop_allv), (68 bytes).
    Removing app_timer.o(i._Z18compare_reg_updatej), (164 bytes).
    Removing app_timer.o(i._Z20timer_timeouts_checkv), (128 bytes).
    Removing app_timer.o(i._Z21elapsed_ticks_acquirePj), (64 bytes).
    Removing app_timer.o(i._Z22expired_timers_handlerjjPj), (88 bytes).
    Removing app_timer.o(i._Z22list_deletions_handlerv), (148 bytes).
    Removing app_timer.o(i._Z23list_insertions_handlerj), (240 bytes).
    Removing app_timer.o(i._Z24timer_list_handler_schedv), (16 bytes).
    Removing app_timer.o(i._Z26app_timer_cnt_diff_computejjPj), (12 bytes).
    Removing app_timer.o(i._Z9rtc1_stopv), (68 bytes).
    Removing app_timer.o(.ARM.exidx), (8 bytes).
    Removing app_timer.o(.ARM.exidx), (8 bytes).
    Removing app_timer.o(.ARM.exidx), (8 bytes).
    Removing app_timer.o(.ARM.exidx), (8 bytes).
    Removing app_timer.o(.ARM.exidx), (8 bytes).
    Removing app_timer.o(.ARM.exidx), (8 bytes).
    Removing app_timer.o(.ARM.exidx), (8 bytes).
    Removing app_timer.o(.ARM.exidx), (8 bytes).
    Removing app_timer.o(.ARM.exidx), (8 bytes).
    Removing app_timer.o(.ARM.exidx), (8 bytes).
    Removing app_timer.o(.ARM.exidx), (8 bytes).
    Removing app_timer.o(.ARM.exidx), (8 bytes).
    Removing app_timer.o(.ARM.exidx), (8 bytes).
    Removing app_timer.o(.ARM.exidx), (8 bytes).
    Removing app_timer.o(.ARM.exidx), (8 bytes).
    Removing app_timer.o(.ARM.exidx), (8 bytes).
    Removing app_timer.o(.ARM.exidx), (8 bytes).
    Removing app_timer.o(.ARM.exidx), (8 bytes).
    Removing app_timer.o(.ARM.exidx), (8 bytes).
    Removing app_timer.o(.ARM.exidx), (8 bytes).
    Removing app_timer.o(.ARM.exidx), (8 bytes).
    Removing app_timer.o(.ARM.exidx), (8 bytes).
    Removing app_timer.o(.data), (36 bytes).
    Removing app_util_platform.o(.rev16_text), (4 bytes).
    Removing app_util_platform.o(.revsh_text), (4 bytes).
    Removing app_util_platform.o(i._Z20critical_region_exitv), (20 bytes).
    Removing app_util_platform.o(i._Z21critical_region_enterv), (16 bytes).
    Removing app_util_platform.o(.ARM.exidx), (8 bytes).
    Removing app_util_platform.o(.ARM.exidx), (8 bytes).
    Removing app_util_platform.o(.data), (4 bytes).
    Removing fadd.o(.text), (178 bytes).
    Removing fmul.o(.text), (122 bytes).
    Removing dadd.o(.text), (356 bytes).
    Removing dmul.o(.text), (208 bytes).
    Removing ddiv.o(.text), (240 bytes).
    Removing fflti.o(.text), (22 bytes).
    Removing dflti.o(.text), (40 bytes).
    Removing dfltui.o(.text), (28 bytes).
    Removing ffixui.o(.text), (40 bytes).
    Removing dfixi.o(.text), (72 bytes).
    Removing dfixui.o(.text), (60 bytes).
    Removing f2d.o(.text), (40 bytes).
    Removing cdcmple.o(.text), (40 bytes).
    Removing cdrcmple.o(.text), (40 bytes).
    Removing d2f.o(.text), (56 bytes).
    Removing fepilogue.o(.text), (130 bytes).
    Removing fdiv.o(.text), (124 bytes).
    Removing fscalb.o(.text), (24 bytes).
    Removing depilogue.o(.text), (190 bytes).
    Removing dfixul.o(.text), (64 bytes).
    Removing ffixir.o(.text), (76 bytes).
    Removing fpstat.o(.text), (4 bytes).
    Removing dfltul.o(.text), (28 bytes).
    Removing print.o(i._ZN5Print5writeEPKc), (30 bytes).
    Removing print.o(.ARM.exidx), (8 bytes).
    Removing uartclass.o(i._ZN9UARTClasscvbEv), (4 bytes).
    Removing uartclass.o(.ARM.exidx), (8 bytes).
    Removing uartclass.o(.constdata__ZTI9UARTClass), (12 bytes).
    Removing uartclass.o(.constdata__ZTI14HardwareSerial), (12 bytes).
    Removing uartclass.o(.constdata__ZTS9UARTClass), (11 bytes).
    Removing uartclass.o(.constdata__ZTI6Stream), (12 bytes).
    Removing uartclass.o(.constdata__ZTS14HardwareSerial), (17 bytes).
    Removing uartclass.o(.constdata__ZTI5Print), (8 bytes).
    Removing uartclass.o(.constdata__ZTS6Stream), (8 bytes).
    Removing uartclass.o(.constdata__ZTS5Print), (7 bytes).
    Removing wiring_digital.o(.ARM.exidx), (8 bytes).
    Removing wstring.o(i._ZN6String4initEv), (10 bytes).
    Removing wstring.o(.ARM.exidx), (8 bytes).
    Removing wstring.o(i._ZSt6strstrPcPKc), (8 bytes).
    Removing wstring.o(.ARM.exidx), (8 bytes).
    Removing depilogue.o(i.__ARM_clz), (46 bytes).

571 unused section(s) (total 18611 bytes) removed from the image.

==============================================================================

Image Symbol Table

    Local Symbols

    Symbol Name                              Value     Ov Type        Size  Object(Section)

    RESET                                    0x00000000   Section      192  arm_startup_nrf51.o(RESET)
    ../../../edgfe/lib_src/arm_exceptions.c  0x00000000   Number         0  arm_exceptions_callterm.o ABSOLUTE
    ../../../edgfe/lib_src/arm_exceptions.c  0x00000000   Number         0  arm_exceptions_mem.o ABSOLUTE
    ../../../edgfe/lib_src/arm_exceptions.c  0x00000000   Number         0  arm_exceptions_globs.o ABSOLUTE
    ../../../edgfe/lib_src/arm_exceptions.c  0x00000000   Number         0  arm_exceptions_support.o ABSOLUTE
    ../../../edgfe/lib_src/arm_exceptions.c  0x00000000   Number         0  arm_exceptions_terminate.o ABSOLUTE
    ../../../edgfe/lib_src/arm_noexceptions.c 0x00000000   Number         0  arm_begincatch_noexceptions.o ABSOLUTE
    ../../../edgfe/lib_src/typeinfo.c        0x00000000   Number         0  lib_rtti_impl.o ABSOLUTE
    ../../../edgfe/lib_src/typeinfo.c        0x00000000   Number         0  type_info_dtor.o ABSOLUTE
    ../clib/microlib/cpp/cpp_init.c          0x00000000   Number         0  cpp_init.o ABSOLUTE
    ../clib/microlib/cpp/cpp_init.c          0x00000000   Number         0  cpp_init.o ABSOLUTE
    ../clib/microlib/cpp/cpp_unwinder.c      0x00000000   Number         0  cpp_unwinder.o ABSOLUTE
    ../clib/microlib/ctype/ctype.c           0x00000000   Number         0  isgraph_o.o ABSOLUTE
    ../clib/microlib/ctype/ctype.c           0x00000000   Number         0  isalnum_o.o ABSOLUTE
    ../clib/microlib/ctype/ctype.c           0x00000000   Number         0  ctype_o.o ABSOLUTE
    ../clib/microlib/ctype/ctype.c           0x00000000   Number         0  isxdigit_o.o ABSOLUTE
    ../clib/microlib/ctype/ctype.c           0x00000000   Number         0  ctype_c.o ABSOLUTE
    ../clib/microlib/ctype/ctype.c           0x00000000   Number         0  isspace_c.o ABSOLUTE
    ../clib/microlib/ctype/ctype.c           0x00000000   Number         0  isupper_o.o ABSOLUTE
    ../clib/microlib/ctype/ctype.c           0x00000000   Number         0  isspace_o.o ABSOLUTE
    ../clib/microlib/ctype/ctype.c           0x00000000   Number         0  ispunct_o.o ABSOLUTE
    ../clib/microlib/ctype/ctype.c           0x00000000   Number         0  isprint_o.o ABSOLUTE
    ../clib/microlib/ctype/ctype.c           0x00000000   Number         0  islower_o.o ABSOLUTE
    ../clib/microlib/ctype/ctype.c           0x00000000   Number         0  isdigit_o.o ABSOLUTE
    ../clib/microlib/ctype/ctype.c           0x00000000   Number         0  iscntrl_o.o ABSOLUTE
    ../clib/microlib/ctype/ctype.c           0x00000000   Number         0  isblank_o.o ABSOLUTE
    ../clib/microlib/ctype/ctype.c           0x00000000   Number         0  isalpha_o.o ABSOLUTE
    ../clib/microlib/ctype/tolower.c         0x00000000   Number         0  tolower.o ABSOLUTE
    ../clib/microlib/ctype/toupper.c         0x00000000   Number         0  toupper.o ABSOLUTE
    ../clib/microlib/division.c              0x00000000   Number         0  idiv.o ABSOLUTE
    ../clib/microlib/division.c              0x00000000   Number         0  uldiv.o ABSOLUTE
    ../clib/microlib/division.c              0x00000000   Number         0  uidiv.o ABSOLUTE
    ../clib/microlib/errno.c                 0x00000000   Number         0  errno.o ABSOLUTE
    ../clib/microlib/init/entry.s            0x00000000   Number         0  entry7a.o ABSOLUTE
    ../clib/microlib/init/entry.s            0x00000000   Number         0  entry9a.o ABSOLUTE
    ../clib/microlib/init/entry.s            0x00000000   Number         0  entry8b.o ABSOLUTE
    ../clib/microlib/init/entry.s            0x00000000   Number         0  entry8a.o ABSOLUTE
    ../clib/microlib/init/entry.s            0x00000000   Number         0  entry11b.o ABSOLUTE
    ../clib/microlib/init/entry.s            0x00000000   Number         0  entry7b.o ABSOLUTE
    ../clib/microlib/init/entry.s            0x00000000   Number         0  entry11a.o ABSOLUTE
    ../clib/microlib/init/entry.s            0x00000000   Number         0  entry10a.o ABSOLUTE
    ../clib/microlib/init/entry.s            0x00000000   Number         0  entry9b.o ABSOLUTE
    ../clib/microlib/init/entry.s            0x00000000   Number         0  entry5.o ABSOLUTE
    ../clib/microlib/init/entry.s            0x00000000   Number         0  entry2.o ABSOLUTE
    ../clib/microlib/init/entry.s            0x00000000   Number         0  entry10b.o ABSOLUTE
    ../clib/microlib/init/entry.s            0x00000000   Number         0  entry.o ABSOLUTE
    ../clib/microlib/longlong.c              0x00000000   Number         0  llshl.o ABSOLUTE
    ../clib/microlib/longlong.c              0x00000000   Number         0  llushr.o ABSOLUTE
    ../clib/microlib/longlong.c              0x00000000   Number         0  llsshr.o ABSOLUTE
    ../clib/microlib/longlong.c              0x00000000   Number         0  llmul.o ABSOLUTE
    ../clib/microlib/malloc/malloc.c         0x00000000   Number         0  mallocr.o ABSOLUTE
    ../clib/microlib/malloc/malloc.c         0x00000000   Number         0  malloca.o ABSOLUTE
    ../clib/microlib/malloc/malloc.c         0x00000000   Number         0  mallocra.o ABSOLUTE
    ../clib/microlib/malloc/malloc.c         0x00000000   Number         0  malloc.o ABSOLUTE
    ../clib/microlib/malloc/mvars.c          0x00000000   Number         0  mvars.o ABSOLUTE
    ../clib/microlib/printf/printf.c         0x00000000   Number         0  printfa.o ABSOLUTE
    ../clib/microlib/printf/printf.c         0x00000000   Number         0  printf1.o ABSOLUTE
    ../clib/microlib/printf/printf.c         0x00000000   Number         0  printf6.o ABSOLUTE
    ../clib/microlib/printf/printf.c         0x00000000   Number         0  printf0.o ABSOLUTE
    ../clib/microlib/printf/printf.c         0x00000000   Number         0  printfb.o ABSOLUTE
    ../clib/microlib/printf/printf.c         0x00000000   Number         0  printf3.o ABSOLUTE
    ../clib/microlib/printf/printf.c         0x00000000   Number         0  printf5.o ABSOLUTE
    ../clib/microlib/printf/printf.c         0x00000000   Number         0  printf2.o ABSOLUTE
    ../clib/microlib/printf/printf.c         0x00000000   Number         0  printf4.o ABSOLUTE
    ../clib/microlib/printf/printf.c         0x00000000   Number         0  printf7.o ABSOLUTE
    ../clib/microlib/printf/printf.c         0x00000000   Number         0  printf8.o ABSOLUTE
    ../clib/microlib/printf/stubs.s          0x00000000   Number         0  stubs.o ABSOLUTE
    ../clib/microlib/stdio/fputc.c           0x00000000   Number         0  fputc.o ABSOLUTE
    ../clib/microlib/stdio/semi.s            0x00000000   Number         0  semi.o ABSOLUTE
    ../clib/microlib/stdio/streams.c         0x00000000   Number         0  stdout.o ABSOLUTE
    ../clib/microlib/stdlib/abort.c          0x00000000   Number         0  abort.o ABSOLUTE
    ../clib/microlib/stdlib/rand.c           0x00000000   Number         0  rand.o ABSOLUTE
    ../clib/microlib/string/memcpy.c         0x00000000   Number         0  memmovea.o ABSOLUTE
    ../clib/microlib/string/memcpy.c         0x00000000   Number         0  memcpya.o ABSOLUTE
    ../clib/microlib/string/memcpy.c         0x00000000   Number         0  memcpyb.o ABSOLUTE
    ../clib/microlib/string/memcpy.c         0x00000000   Number         0  memmoveb.o ABSOLUTE
    ../clib/microlib/string/memset.c         0x00000000   Number         0  memseta.o ABSOLUTE
    ../clib/microlib/string/strchr.c         0x00000000   Number         0  strchr.o ABSOLUTE
    ../clib/microlib/string/strcmp.c         0x00000000   Number         0  strcmp.o ABSOLUTE
    ../clib/microlib/string/strcpy.c         0x00000000   Number         0  strcpy.o ABSOLUTE
    ../clib/microlib/string/strlen.c         0x00000000   Number         0  strlen.o ABSOLUTE
    ../clib/microlib/string/strncmp.c        0x00000000   Number         0  strncmp.o ABSOLUTE
    ../clib/microlib/string/strncpy.c        0x00000000   Number         0  strncpy.o ABSOLUTE
    ../clib/microlib/string/strrchr.c        0x00000000   Number         0  strrchr.o ABSOLUTE
    ../clib/microlib/string/strstr.c         0x00000000   Number         0  strstr.o ABSOLUTE
    ../clib/microlib/stubs.s                 0x00000000   Number         0  iusefp.o ABSOLUTE
    ../clib/microlib/stubs.s                 0x00000000   Number         0  iusesemip.o ABSOLUTE
    ../clib/scanf.c                          0x00000000   Number         0  atol.o ABSOLUTE
    ../clib/scanf.c                          0x00000000   Number         0  strtol.o ABSOLUTE
    ../clib/scanf.c                          0x00000000   Number         0  strtod.o ABSOLUTE
    ../clib/scanf.c                          0x00000000   Number         0  _sgetc.o ABSOLUTE
    ../clib/scanf.c                          0x00000000   Number         0  _strtoul.o ABSOLUTE
    ../clib/scanf.c                          0x00000000   Number         0  _chval.o ABSOLUTE
    ../clib/scanf.c                          0x00000000   Number         0  scanf_fp.o ABSOLUTE
    ../fplib/microlib/d2f.c                  0x00000000   Number         0  d2f.o ABSOLUTE
    ../fplib/microlib/f2d.c                  0x00000000   Number         0  f2d.o ABSOLUTE
    ../fplib/microlib/fpadd.c                0x00000000   Number         0  dadd.o ABSOLUTE
    ../fplib/microlib/fpadd.c                0x00000000   Number         0  fadd.o ABSOLUTE
    ../fplib/microlib/fpdiv.c                0x00000000   Number         0  fdiv.o ABSOLUTE
    ../fplib/microlib/fpdiv.c                0x00000000   Number         0  ddiv.o ABSOLUTE
    ../fplib/microlib/fpepilogue.c           0x00000000   Number         0  depilogue.o ABSOLUTE
    ../fplib/microlib/fpepilogue.c           0x00000000   Number         0  fepilogue.o ABSOLUTE
    ../fplib/microlib/fpfix.c                0x00000000   Number         0  dfixi.o ABSOLUTE
    ../fplib/microlib/fpfix.c                0x00000000   Number         0  dfixui.o ABSOLUTE
    ../fplib/microlib/fpfix.c                0x00000000   Number         0  ffixir.o ABSOLUTE
    ../fplib/microlib/fpfix.c                0x00000000   Number         0  dfixul.o ABSOLUTE
    ../fplib/microlib/fpfix.c                0x00000000   Number         0  ffixui.o ABSOLUTE
    ../fplib/microlib/fpflt.c                0x00000000   Number         0  fflti.o ABSOLUTE
    ../fplib/microlib/fpflt.c                0x00000000   Number         0  dflti.o ABSOLUTE
    ../fplib/microlib/fpflt.c                0x00000000   Number         0  dfltui.o ABSOLUTE
    ../fplib/microlib/fpflt.c                0x00000000   Number         0  dfltul.o ABSOLUTE
    ../fplib/microlib/fpmul.c                0x00000000   Number         0  dmul.o ABSOLUTE
    ../fplib/microlib/fpmul.c                0x00000000   Number         0  fmul.o ABSOLUTE
    ../fplib/microlib/fpscalb.c              0x00000000   Number         0  fscalb.o ABSOLUTE
    ../fplib/microlib/fpstat.c               0x00000000   Number         0  fpstat.o ABSOLUTE
    ../mathlib/atof.c                        0x00000000   Number         0  atof.o ABSOLUTE
    ../mathlib/fpclassifyf.c                 0x00000000   Number         0  fpclassifyf.o ABSOLUTE
    ../mathlib/funder.c                      0x00000000   Number         0  funder.o ABSOLUTE
    ../mathlib/powf.c                        0x00000000   Number         0  powf.o ABSOLUTE
    ../mathlib/powf.c                        0x00000000   Number         0  powf_x.o ABSOLUTE
    ..\..\..\arduino\Print.cpp               0x00000000   Number         0  print.o ABSOLUTE
    ..\..\..\arduino\RingBuffer.cpp          0x00000000   Number         0  ringbuffer.o ABSOLUTE
    ..\..\..\arduino\Stream.cpp              0x00000000   Number         0  stream.o ABSOLUTE
    ..\..\..\arduino\Tone.cpp                0x00000000   Number         0  tone.o ABSOLUTE
    ..\..\..\arduino\UARTClass.cpp           0x00000000   Number         0  uartclass.o ABSOLUTE
    ..\..\..\arduino\WInterrupts.c           0x00000000   Number         0  winterrupts.o ABSOLUTE
    ..\..\..\arduino\WMath.cpp               0x00000000   Number         0  wmath.o ABSOLUTE
    ..\..\..\arduino\WString.cpp             0x00000000   Number         0  wstring.o ABSOLUTE
    ..\..\..\arduino\dtoa.c                  0x00000000   Number         0  dtoa.o ABSOLUTE
    ..\..\..\arduino\hooks.c                 0x00000000   Number         0  hooks.o ABSOLUTE
    ..\..\..\arduino\itoa.c                  0x00000000   Number         0  itoa.o ABSOLUTE
    ..\..\..\arduino\main.cpp                0x00000000   Number         0  main.o ABSOLUTE
    ..\..\..\arduino\new.cpp                 0x00000000   Number         0  new.o ABSOLUTE
    ..\..\..\arduino\wiring.c                0x00000000   Number         0  wiring.o ABSOLUTE
    ..\..\..\arduino\wiring_analog.c         0x00000000   Number         0  wiring_analog.o ABSOLUTE
    ..\..\..\arduino\wiring_digital.c        0x00000000   Number         0  wiring_digital.o ABSOLUTE
    ..\..\..\arduino\wiring_pulse.cpp        0x00000000   Number         0  wiring_pulse.o ABSOLUTE
    ..\..\..\arduino\wiring_shift.c          0x00000000   Number         0  wiring_shift.o ABSOLUTE
    ..\..\..\arduino\wuart.cpp               0x00000000   Number         0  wuart.o ABSOLUTE
    ..\..\..\arduino_nrf51822\app_error_check.c 0x00000000   Number         0  app_error_check.o ABSOLUTE
    ..\..\..\arduino_nrf51822\pin_transform.c 0x00000000   Number         0  pin_transform.o ABSOLUTE
    ..\..\..\arduino_nrf51822\variant.cpp    0x00000000   Number         0  variant.o ABSOLUTE
    ..\..\..\blinky.c                        0x00000000   Number         0  blinky.o ABSOLUTE
    ..\\..\\..\\arduino\\Print.cpp           0x00000000   Number         0  print.o ABSOLUTE
    ..\\..\\..\\arduino\\Stream.cpp          0x00000000   Number         0  stream.o ABSOLUTE
    ..\\..\\..\\arduino\\Tone.cpp            0x00000000   Number         0  tone.o ABSOLUTE
    ..\\..\\..\\arduino\\UARTClass.cpp       0x00000000   Number         0  uartclass.o ABSOLUTE
    ..\\..\\..\\arduino\\WInterrupts.c       0x00000000   Number         0  winterrupts.o ABSOLUTE
    ..\\..\\..\\arduino\\main.cpp            0x00000000   Number         0  main.o ABSOLUTE
    ..\\..\\..\\arduino\\wiring.c            0x00000000   Number         0  wiring.o ABSOLUTE
    ..\\..\\..\\arduino\\wiring_analog.c     0x00000000   Number         0  wiring_analog.o ABSOLUTE
    ..\\..\\..\\arduino\\wiring_digital.c    0x00000000   Number         0  wiring_digital.o ABSOLUTE
    ..\\..\\..\\arduino\\wiring_pulse.cpp    0x00000000   Number         0  wiring_pulse.o ABSOLUTE
    ..\\..\\..\\arduino\\wiring_shift.c      0x00000000   Number         0  wiring_shift.o ABSOLUTE
    ..\\..\\..\\arduino\\wuart.cpp           0x00000000   Number         0  wuart.o ABSOLUTE
    ..\\..\\..\\arduino_nrf51822\\app_error_check.c 0x00000000   Number         0  app_error_check.o ABSOLUTE
    ..\\..\\..\\arduino_nrf51822\\pin_transform.c 0x00000000   Number         0  pin_transform.o ABSOLUTE
    ..\\..\\..\\arduino_nrf51822\\variant.cpp 0x00000000   Number         0  variant.o ABSOLUTE
    ..\\..\\..\\blinky.c                     0x00000000   Number         0  blinky.o ABSOLUTE
    C:\Keil_v5\ARM\PACK\NordicSemiconductor\nRF_Drivers\1.2.0\hal\nrf_delay.c 0x00000000   Number         0  nrf_delay.o ABSOLUTE
    C:\\Keil_v5\\ARM\\PACK\\NordicSemiconductor\\nRF_Drivers\\1.2.0\\hal\\nrf_delay.c 0x00000000   Number         0  nrf_delay.o ABSOLUTE
    RTE\Device\nRF51422_xxAC\arm_startup_nrf51.s 0x00000000   Number         0  arm_startup_nrf51.o ABSOLUTE
    RTE\Device\nRF51422_xxAC\system_nrf51.c  0x00000000   Number         0  system_nrf51.o ABSOLUTE
    RTE\\Device\\nRF51422_xxAC\\system_nrf51.c 0x00000000   Number         0  system_nrf51.o ABSOLUTE
    RTE\\nRF_Libraries\\nRF51422_xxAC\\app_error.c 0x00000000   Number         0  app_error.o ABSOLUTE
    RTE\\nRF_Libraries\\nRF51422_xxAC\\app_scheduler.c 0x00000000   Number         0  app_scheduler.o ABSOLUTE
    RTE\\nRF_Libraries\\nRF51422_xxAC\\app_timer.c 0x00000000   Number         0  app_timer.o ABSOLUTE
    RTE\\nRF_Libraries\\nRF51422_xxAC\\app_util_platform.c 0x00000000   Number         0  app_util_platform.o ABSOLUTE
    RTE\nRF_Libraries\nRF51422_xxAC\app_error.c 0x00000000   Number         0  app_error.o ABSOLUTE
    RTE\nRF_Libraries\nRF51422_xxAC\app_scheduler.c 0x00000000   Number         0  app_scheduler.o ABSOLUTE
    RTE\nRF_Libraries\nRF51422_xxAC\app_timer.c 0x00000000   Number         0  app_timer.o ABSOLUTE
    RTE\nRF_Libraries\nRF51422_xxAC\app_util_platform.c 0x00000000   Number         0  app_util_platform.o ABSOLUTE
    RTE\nRF_Libraries\nRF51422_xxAC\nrf_assert.c 0x00000000   Number         0  nrf_assert.o ABSOLUTE
    cdcmple.s                                0x00000000   Number         0  cdcmple.o ABSOLUTE
    cdrcmple.s                               0x00000000   Number         0  cdrcmple.o ABSOLUTE
    dc.s                                     0x00000000   Number         0  dc.o ABSOLUTE
    handlers.s                               0x00000000   Number         0  handlers.o ABSOLUTE
    init.s                                   0x00000000   Number         0  init.o ABSOLUTE
    .ARM.Collect$$$$00000000                 0x000000c0   Section        0  entry.o(.ARM.Collect$$$$00000000)
    .ARM.Collect$$$$00000001                 0x000000c0   Section        4  entry2.o(.ARM.Collect$$$$00000001)
    .ARM.Collect$$$$00000004                 0x000000c4   Section        4  entry5.o(.ARM.Collect$$$$00000004)
    .ARM.Collect$$$$00000008                 0x000000c8   Section        0  entry7b.o(.ARM.Collect$$$$00000008)
    .ARM.Collect$$$$00000009                 0x000000c8   Section        4  entry8a.o(.ARM.Collect$$$$00000009)
    .ARM.Collect$$$$0000000A                 0x000000cc   Section        0  entry8b.o(.ARM.Collect$$$$0000000A)
    .ARM.Collect$$$$0000000B                 0x000000cc   Section        8  entry9a.o(.ARM.Collect$$$$0000000B)
    .ARM.Collect$$$$0000000D                 0x000000d4   Section        0  entry10a.o(.ARM.Collect$$$$0000000D)
    .ARM.Collect$$$$0000000F                 0x000000d4   Section        0  entry11a.o(.ARM.Collect$$$$0000000F)
    .ARM.Collect$$$$00002712                 0x000000d4   Section        4  entry2.o(.ARM.Collect$$$$00002712)
    __lit__00000000                          0x000000d4   Data           4  entry2.o(.ARM.Collect$$$$00002712)
    .emb_text                                0x000000d8   Section       30  nrf_delay.o(.emb_text)
    .text                                    0x000000f8   Section       56  arm_startup_nrf51.o(.text)
    .text                                    0x00000130   Section        0  memseta.o(.text)
    .text                                    0x00000154   Section        0  cpp_init.o(.text)
    .text                                    0x00000174   Section       36  init.o(.text)
    i.GPIOTE_Channel_Clean                   0x00000198   Section        0  wiring_analog.o(i.GPIOTE_Channel_Clean)
    i.PPI_Off_FROM_GPIO                      0x000001b8   Section        0  wiring_analog.o(i.PPI_Off_FROM_GPIO)
    i.Pin_nRF51822_to_Arduino                0x000002f0   Section        0  pin_transform.o(i.Pin_nRF51822_to_Arduino)
    i.SystemInit                             0x0000037c   Section        0  system_nrf51.o(i.SystemInit)
    i.UnlinkInterrupt                        0x000003d0   Section        0  winterrupts.o(i.UnlinkInterrupt)
    i._Z12nrf_delay_msj                      0x000003d4   Section        0  nrf_delay.o(i._Z12nrf_delay_msj)
    i._Z33is_manual_peripheral_setup_neededv 0x000003f0   Section        0  system_nrf51.o(i._Z33is_manual_peripheral_setup_neededv)
    is_manual_peripheral_setup_needed()      0x000003f1   Thumb Code    66  system_nrf51.o(i._Z33is_manual_peripheral_setup_neededv)
    i._Z8turnPinsb                           0x00000438   Section        0  blinky.o(i._Z8turnPinsb)
    i._ZN10RingBufferC1Ev                    0x00000456   Section        0  ringbuffer.o(i._ZN10RingBufferC1Ev)
    i._ZN9UARTClassC1EP10RingBuffer          0x0000046c   Section        0  uartclass.o(i._ZN9UARTClassC1EP10RingBuffer)
    i.__ARM_common_switch8                   0x00000484   Section        0  wiring_digital.o(i.__ARM_common_switch8)
    i.__scatterload_copy                     0x0000049e   Section       14  handlers.o(i.__scatterload_copy)
    i.__scatterload_null                     0x000004ac   Section        2  handlers.o(i.__scatterload_null)
    i.__scatterload_zeroinit                 0x000004ae   Section       14  handlers.o(i.__scatterload_zeroinit)
    i.__sti___9_wuart_cpp_6f152d4a           0x000004bc   Section        0  wuart.o(i.__sti___9_wuart_cpp_6f152d4a)
    __sti___9_wuart_cpp_6f152d4a             0x000004bd   Thumb Code    20  wuart.o(i.__sti___9_wuart_cpp_6f152d4a)
    i.delay                                  0x000004d4   Section        0  wiring.o(i.delay)
    i.digitalWrite                           0x000004dc   Section        0  wiring_digital.o(i.digitalWrite)
    i.init                                   0x00000508   Section        0  variant.o(i.init)
    i.initVariant                            0x00000510   Section        0  main.o(i.initVariant)
    i.lfclk_config                           0x00000514   Section        0  variant.o(i.lfclk_config)
    i.loop                                   0x00000538   Section        0  blinky.o(i.loop)
    i.main                                   0x00000558   Section        0  main.o(i.main)
    i.pinMode                                0x00000580   Section        0  wiring_digital.o(i.pinMode)
    i.setup                                  0x000005fc   Section        0  blinky.o(i.setup)
    .constdata__ZTV9UARTClass                0x00000610   Section       32  uartclass.o(.constdata__ZTV9UARTClass)
    .init_array                              0x00000650   Section        4  wuart.o(.init_array)
    .init_array                              0x00000654   Section        0  cpp_init.o(.init_array)
    .data                                    0x20000000   Section       56  wiring_analog.o(.data)
    analogReadResolution_bit                 0x20000000   Data           1  wiring_analog.o(.data)
    analogWriteResolution_bit                0x20000001   Data           1  wiring_analog.o(.data)
    softdevice_enabled                       0x20000002   Data           1  wiring_analog.o(.data)
    GPIOTE_Channel_for_Analog                0x20000003   Data           3  wiring_analog.o(.data)
    Timer1_Occupied_Pin                      0x20000006   Data           3  wiring_analog.o(.data)
    PWM_Channels_Start                       0x20000009   Data           3  wiring_analog.o(.data)
    GPIOTE_Channels_Occupied                 0x2000000c   Data           4  wiring_analog.o(.data)
    analogReference_ext_type                 0x20000010   Data           4  wiring_analog.o(.data)
    analogReference_type                     0x20000014   Data           4  wiring_analog.o(.data)
    analogReference_inpsel_type              0x20000018   Data           4  wiring_analog.o(.data)
    PPI_Channels_Occupied                    0x2000001c   Data          16  wiring_analog.o(.data)
    PWM_Channels_Value                       0x2000002c   Data          12  wiring_analog.o(.data)
    .data                                    0x20000038   Section        4  system_nrf51.o(.data)
    __tagsym$$used                           0x20000038   Number         0  system_nrf51.o(.data)
    .bss                                     0x2000003c   Section       96  wuart.o(.bss)
    STACK                                    0x200000a0   Section     2048  arm_startup_nrf51.o(STACK)

    Global Symbols

    Symbol Name                              Value     Ov Type        Size  Object(Section)

    BuildAttributes$$THM_ISAv3M$S$PE$A:L22$X:L11$S22$IEEE1$IW$USESV6$~STKCKD$USESV7$~SHL$OTIME$ROPI$IEEEX$EBA8$UX$MICROLIB$REQ8$PRES8$EABIv2 0x00000000   Number         0  anon$$obj.o ABSOLUTE
    __ARM_use_no_argv                        0x00000000   Number         0  main.o ABSOLUTE
    __Vectors                                0x00000000   Data           4  arm_startup_nrf51.o(RESET)
    _printf_a                                0x00000000   Number         0  stubs.o ABSOLUTE
    _printf_c                                0x00000000   Number         0  stubs.o ABSOLUTE
    _printf_charcount                        0x00000000   Number         0  stubs.o ABSOLUTE
    _printf_d                                0x00000000   Number         0  stubs.o ABSOLUTE
    _printf_e                                0x00000000   Number         0  stubs.o ABSOLUTE
    _printf_f                                0x00000000   Number         0  stubs.o ABSOLUTE
    _printf_flags                            0x00000000   Number         0  stubs.o ABSOLUTE
    _printf_fp_dec                           0x00000000   Number         0  stubs.o ABSOLUTE
    _printf_fp_hex                           0x00000000   Number         0  stubs.o ABSOLUTE
    _printf_g                                0x00000000   Number         0  stubs.o ABSOLUTE
    _printf_i                                0x00000000   Number         0  stubs.o ABSOLUTE
    _printf_int_dec                          0x00000000   Number         0  stubs.o ABSOLUTE
    _printf_l                                0x00000000   Number         0  stubs.o ABSOLUTE
    _printf_lc                               0x00000000   Number         0  stubs.o ABSOLUTE
    _printf_ll                               0x00000000   Number         0  stubs.o ABSOLUTE
    _printf_lld                              0x00000000   Number         0  stubs.o ABSOLUTE
    _printf_lli                              0x00000000   Number         0  stubs.o ABSOLUTE
    _printf_llo                              0x00000000   Number         0  stubs.o ABSOLUTE
    _printf_llu                              0x00000000   Number         0  stubs.o ABSOLUTE
    _printf_llx                              0x00000000   Number         0  stubs.o ABSOLUTE
    _printf_longlong_dec                     0x00000000   Number         0  stubs.o ABSOLUTE
    _printf_longlong_hex                     0x00000000   Number         0  stubs.o ABSOLUTE
    _printf_longlong_oct                     0x00000000   Number         0  stubs.o ABSOLUTE
    _printf_ls                               0x00000000   Number         0  stubs.o ABSOLUTE
    _printf_mbtowc                           0x00000000   Number         0  stubs.o ABSOLUTE
    _printf_n                                0x00000000   Number         0  stubs.o ABSOLUTE
    _printf_o                                0x00000000   Number         0  stubs.o ABSOLUTE
    _printf_p                                0x00000000   Number         0  stubs.o ABSOLUTE
    _printf_percent                          0x00000000   Number         0  stubs.o ABSOLUTE
    _printf_pre_padding                      0x00000000   Number         0  stubs.o ABSOLUTE
    _printf_return_value                     0x00000000   Number         0  stubs.o ABSOLUTE
    _printf_s                                0x00000000   Number         0  stubs.o ABSOLUTE
    _printf_sizespec                         0x00000000   Number         0  stubs.o ABSOLUTE
    _printf_str                              0x00000000   Number         0  stubs.o ABSOLUTE
    _printf_truncate_signed                  0x00000000   Number         0  stubs.o ABSOLUTE
    _printf_truncate_unsigned                0x00000000   Number         0  stubs.o ABSOLUTE
    _printf_u                                0x00000000   Number         0  stubs.o ABSOLUTE
    _printf_wc                               0x00000000   Number         0  stubs.o ABSOLUTE
    _printf_wctomb                           0x00000000   Number         0  stubs.o ABSOLUTE
    _printf_widthprec                        0x00000000   Number         0  stubs.o ABSOLUTE
    _printf_x                                0x00000000   Number         0  stubs.o ABSOLUTE
    serialEventRun()                          - Undefined Weak Reference
    __ARM::default_unexpected_handler()       - Undefined Weak Reference
    typeinfo for Printable                    - Undefined Weak Reference
    __ARM_exceptions_buffer_required          - Undefined Weak Reference
    __cxa_finalize                            - Undefined Weak Reference
    __decompress                              - Undefined Weak Reference
    _clock_init                               - Undefined Weak Reference
    _microlib_exit                            - Undefined Weak Reference
    __Vectors_End                            0x000000c0   Data           0  arm_startup_nrf51.o(RESET)
    __Vectors_Size                           0x000000c0   Number         0  arm_startup_nrf51.o ABSOLUTE
    __main                                   0x000000c1   Thumb Code     0  entry.o(.ARM.Collect$$$$00000000)
    _main_stk                                0x000000c1   Thumb Code     0  entry2.o(.ARM.Collect$$$$00000001)
    _main_scatterload                        0x000000c5   Thumb Code     0  entry5.o(.ARM.Collect$$$$00000004)
    __main_after_scatterload                 0x000000c9   Thumb Code     0  entry5.o(.ARM.Collect$$$$00000004)
    _main_clock                              0x000000c9   Thumb Code     0  entry7b.o(.ARM.Collect$$$$00000008)
    _main_cpp_init$empty                     0x000000c9   Thumb Code     0  entry8a.o(.ARM.Collect$$$$00000009)
    _main_cpp_init                           0x000000cd   Thumb Code     0  entry8b.o(.ARM.Collect$$$$0000000A)
    _main_init                               0x000000cd   Thumb Code     0  entry9a.o(.ARM.Collect$$$$0000000B)
    __rt_final_cpp                           0x000000d5   Thumb Code     0  entry10a.o(.ARM.Collect$$$$0000000D)
    __rt_final_exit                          0x000000d5   Thumb Code     0  entry11a.o(.ARM.Collect$$$$0000000F)
    __asm___11_nrf_delay_c_12821de1___Z12nrf_delay_usj 0x000000d9   Thumb Code    30  nrf_delay.o(.emb_text)
    Reset_Handler                            0x000000f9   Thumb Code    26  arm_startup_nrf51.o(.text)
    NMI_Handler                              0x00000113   Thumb Code     2  arm_startup_nrf51.o(.text)
    HardFault_Handler                        0x00000115   Thumb Code     2  arm_startup_nrf51.o(.text)
    SVC_Handler                              0x00000117   Thumb Code     2  arm_startup_nrf51.o(.text)
    PendSV_Handler                           0x00000119   Thumb Code     2  arm_startup_nrf51.o(.text)
    SysTick_Handler                          0x0000011b   Thumb Code     2  arm_startup_nrf51.o(.text)
    ADC_IRQHandler                           0x0000011d   Thumb Code     0  arm_startup_nrf51.o(.text)
    CCM_AAR_IRQHandler                       0x0000011d   Thumb Code     0  arm_startup_nrf51.o(.text)
    ECB_IRQHandler                           0x0000011d   Thumb Code     0  arm_startup_nrf51.o(.text)
    GPIOTE_IRQHandler                        0x0000011d   Thumb Code     0  arm_startup_nrf51.o(.text)
    LPCOMP_IRQHandler                        0x0000011d   Thumb Code     0  arm_startup_nrf51.o(.text)
    POWER_CLOCK_IRQHandler                   0x0000011d   Thumb Code     0  arm_startup_nrf51.o(.text)
    QDEC_IRQHandler                          0x0000011d   Thumb Code     0  arm_startup_nrf51.o(.text)
    RADIO_IRQHandler                         0x0000011d   Thumb Code     0  arm_startup_nrf51.o(.text)
    RNG_IRQHandler                           0x0000011d   Thumb Code     0  arm_startup_nrf51.o(.text)
    RTC0_IRQHandler                          0x0000011d   Thumb Code     0  arm_startup_nrf51.o(.text)
    RTC1_IRQHandler                          0x0000011d   Thumb Code     0  arm_startup_nrf51.o(.text)
    SPI0_TWI0_IRQHandler                     0x0000011d   Thumb Code     0  arm_startup_nrf51.o(.text)
    SPI1_TWI1_IRQHandler                     0x0000011d   Thumb Code     0  arm_startup_nrf51.o(.text)
    SWI0_IRQHandler                          0x0000011d   Thumb Code     0  arm_startup_nrf51.o(.text)
    SWI1_IRQHandler                          0x0000011d   Thumb Code     0  arm_startup_nrf51.o(.text)
    SWI2_IRQHandler                          0x0000011d   Thumb Code     0  arm_startup_nrf51.o(.text)
    SWI3_IRQHandler                          0x0000011d   Thumb Code     0  arm_startup_nrf51.o(.text)
    SWI4_IRQHandler                          0x0000011d   Thumb Code     0  arm_startup_nrf51.o(.text)
    SWI5_IRQHandler                          0x0000011d   Thumb Code     0  arm_startup_nrf51.o(.text)
    TEMP_IRQHandler                          0x0000011d   Thumb Code     0  arm_startup_nrf51.o(.text)
    TIMER0_IRQHandler                        0x0000011d   Thumb Code     0  arm_startup_nrf51.o(.text)
    TIMER1_IRQHandler                        0x0000011d   Thumb Code     0  arm_startup_nrf51.o(.text)
    TIMER2_IRQHandler                        0x0000011d   Thumb Code     0  arm_startup_nrf51.o(.text)
    UART0_IRQHandler                         0x0000011d   Thumb Code     0  arm_startup_nrf51.o(.text)
    WDT_IRQHandler                           0x0000011d   Thumb Code     0  arm_startup_nrf51.o(.text)
    __aeabi_memset                           0x00000131   Thumb Code    14  memseta.o(.text)
    __aeabi_memset4                          0x00000131   Thumb Code     0  memseta.o(.text)
    __aeabi_memset8                          0x00000131   Thumb Code     0  memseta.o(.text)
    __aeabi_memclr                           0x0000013f   Thumb Code     4  memseta.o(.text)
    __aeabi_memclr4                          0x0000013f   Thumb Code     0  memseta.o(.text)
    __aeabi_memclr8                          0x0000013f   Thumb Code     0  memseta.o(.text)
    _memset$wrapper                          0x00000143   Thumb Code    18  memseta.o(.text)
    __cpp_initialize__aeabi_                 0x00000155   Thumb Code    22  cpp_init.o(.text)
    __scatterload                            0x00000175   Thumb Code    28  init.o(.text)
    __scatterload_rt2                        0x00000175   Thumb Code     0  init.o(.text)
    GPIOTE_Channel_Clean                     0x00000199   Thumb Code    18  wiring_analog.o(i.GPIOTE_Channel_Clean)
    PPI_Off_FROM_GPIO                        0x000001b9   Thumb Code   292  wiring_analog.o(i.PPI_Off_FROM_GPIO)
    Pin_nRF51822_to_Arduino                  0x000002f1   Thumb Code   140  pin_transform.o(i.Pin_nRF51822_to_Arduino)
    SystemInit                               0x0000037d   Thumb Code    64  system_nrf51.o(i.SystemInit)
    UnlinkInterrupt                          0x000003d1   Thumb Code     2  winterrupts.o(i.UnlinkInterrupt)
    nrf_delay_ms(unsigned)                   0x000003d5   Thumb Code    24  nrf_delay.o(i._Z12nrf_delay_msj)
    turnPins(bool)                           0x00000439   Thumb Code    30  blinky.o(i._Z8turnPinsb)
    RingBuffer::RingBuffer()                 0x00000457   Thumb Code    20  ringbuffer.o(i._ZN10RingBufferC1Ev)
    RingBuffer::RingBuffer__sub_object()     0x00000457   Thumb Code     0  ringbuffer.o(i._ZN10RingBufferC1Ev)
    UARTClass::UARTClass(RingBuffer*)        0x0000046d   Thumb Code    18  uartclass.o(i._ZN9UARTClassC1EP10RingBuffer)
    UARTClass::UARTClass__sub_object(RingBuffer*) 0x0000046d   Thumb Code     0  uartclass.o(i._ZN9UARTClassC1EP10RingBuffer)
    __ARM_common_switch8                     0x00000485   Thumb Code    26  wiring_digital.o(i.__ARM_common_switch8)
    __scatterload_copy                       0x0000049f   Thumb Code    14  handlers.o(i.__scatterload_copy)
    __scatterload_null                       0x000004ad   Thumb Code     2  handlers.o(i.__scatterload_null)
    __scatterload_zeroinit                   0x000004af   Thumb Code    14  handlers.o(i.__scatterload_zeroinit)
    delay                                    0x000004d5   Thumb Code     8  wiring.o(i.delay)
    digitalWrite                             0x000004dd   Thumb Code    38  wiring_digital.o(i.digitalWrite)
    init                                     0x00000509   Thumb Code     8  variant.o(i.init)
    initVariant                              0x00000511   Thumb Code     2  main.o(i.initVariant)
    lfclk_config                             0x00000515   Thumb Code    26  variant.o(i.lfclk_config)
    loop                                     0x00000539   Thumb Code    32  blinky.o(i.loop)
    main                                     0x00000559   Thumb Code    36  main.o(i.main)
    pinMode                                  0x00000581   Thumb Code    94  wiring_digital.o(i.pinMode)
    setup                                    0x000005fd   Thumb Code    20  blinky.o(i.setup)
    vtable for UARTClass                     0x00000610   Data          32  uartclass.o(.constdata__ZTV9UARTClass)
    Region$$Table$$Base                      0x00000630   Number         0  anon$$obj.o(Region$$Table)
    Region$$Table$$Limit                     0x00000650   Number         0  anon$$obj.o(Region$$Table)
    SHT$$INIT_ARRAY$$Base                    0x00000650   Number         0  wuart.o(.init_array)
    SHT$$INIT_ARRAY$$Limit                   0x00000654   Number         0  cpp_init.o(.init_array)
    SystemCoreClock                          0x20000038   Data           4  system_nrf51.o(.data)
    rxbuffer                                 0x2000003c   Data          72  wuart.o(.bss)
    Serial                                   0x20000084   Data          24  wuart.o(.bss)
    __initial_sp                             0x200008a0   Data           0  arm_startup_nrf51.o(STACK)



==============================================================================

Memory Map of the image

  Image Entry point : 0x000000c1

  Load Region LR_IROM1 (Base: 0x00000000, Size: 0x00000690, Max: 0x00039000, ABSOLUTE)

    Execution Region ER_IROM1 (Base: 0x00000000, Size: 0x00000654, Max: 0x00039000, ABSOLUTE)

    Base Addr    Size         Type   Attr      Idx    E Section Name        Object

    0x00000000   0x000000c0   Data   RO         2099    RESET               arm_startup_nrf51.o
    0x000000c0   0x00000000   Code   RO         2661  * .ARM.Collect$$$$00000000  mc_p.l(entry.o)
    0x000000c0   0x00000004   Code   RO         3086    .ARM.Collect$$$$00000001  mc_p.l(entry2.o)
    0x000000c4   0x00000004   Code   RO         3089    .ARM.Collect$$$$00000004  mc_p.l(entry5.o)
    0x000000c8   0x00000000   Code   RO         3091    .ARM.Collect$$$$00000008  mc_p.l(entry7b.o)
    0x000000c8   0x00000004   Code   RO         3092    .ARM.Collect$$$$00000009  mc_p.l(entry8a.o)
    0x000000cc   0x00000000   Code   RO         3093    .ARM.Collect$$$$0000000A  mc_p.l(entry8b.o)
    0x000000cc   0x00000008   Code   RO         3094    .ARM.Collect$$$$0000000B  mc_p.l(entry9a.o)
    0x000000d4   0x00000000   Code   RO         3096    .ARM.Collect$$$$0000000D  mc_p.l(entry10a.o)
    0x000000d4   0x00000000   Code   RO         3098    .ARM.Collect$$$$0000000F  mc_p.l(entry11a.o)
    0x000000d4   0x00000004   Code   RO         3087    .ARM.Collect$$$$00002712  mc_p.l(entry2.o)
    0x000000d8   0x0000001e   Code   RO         2158    .emb_text           nrf_delay.o
    0x000000f6   0x00000002   PAD
    0x000000f8   0x00000038   Code   RO         2100    .text               arm_startup_nrf51.o
    0x00000130   0x00000024   Code   RO         2709    .text               mc_p.l(memseta.o)
    0x00000154   0x00000020   Code   RO         3025    .text               mc_p.l(cpp_init.o)
    0x00000174   0x00000024   Code   RO         3154    .text               mc_p.l(init.o)
    0x00000198   0x00000020   Code   RO         1052    i.GPIOTE_Channel_Clean  wiring_analog.o
    0x000001b8   0x00000138   Code   RO         1056    i.PPI_Off_FROM_GPIO  wiring_analog.o
    0x000002f0   0x0000008c   Code   RO         1961    i.Pin_nRF51822_to_Arduino  pin_transform.o
    0x0000037c   0x00000054   Code   RO         2107    i.SystemInit        system_nrf51.o
    0x000003d0   0x00000002   Code   RO          903    i.UnlinkInterrupt   winterrupts.o
    0x000003d2   0x00000002   PAD
    0x000003d4   0x0000001c   Code   RO         2159    i._Z12nrf_delay_msj  nrf_delay.o
    0x000003f0   0x00000048   Code   RO         2108    i._Z33is_manual_peripheral_setup_neededv  system_nrf51.o
    0x00000438   0x0000001e   Code   RO            4    i._Z8turnPinsb      blinky.o
    0x00000456   0x00000014   Code   RO          553    i._ZN10RingBufferC1Ev  ringbuffer.o
    0x0000046a   0x00000002   PAD
    0x0000046c   0x00000018   Code   RO          789    i._ZN9UARTClassC1EP10RingBuffer  uartclass.o
    0x00000484   0x0000001a   Code   RO         1221    i.__ARM_common_switch8  wiring_digital.o
    0x0000049e   0x0000000e   Code   RO         3185    i.__scatterload_copy  mc_p.l(handlers.o)
    0x000004ac   0x00000002   Code   RO         3186    i.__scatterload_null  mc_p.l(handlers.o)
    0x000004ae   0x0000000e   Code   RO         3187    i.__scatterload_zeroinit  mc_p.l(handlers.o)
    0x000004bc   0x00000018   Code   RO         1823    i.__sti___9_wuart_cpp_6f152d4a  wuart.o
    0x000004d4   0x00000008   Code   RO          966    i.delay             wiring.o
    0x000004dc   0x0000002c   Code   RO         1189    i.digitalWrite      wiring_digital.o
    0x00000508   0x00000008   Code   RO         1986    i.init              variant.o
    0x00000510   0x00000002   Code   RO          269    i.initVariant       main.o
    0x00000512   0x00000002   PAD
    0x00000514   0x00000024   Code   RO         1987    i.lfclk_config      variant.o
    0x00000538   0x00000020   Code   RO            5    i.loop              blinky.o
    0x00000558   0x00000028   Code   RO          270    i.main              main.o
    0x00000580   0x0000007c   Code   RO         1190    i.pinMode           wiring_digital.o
    0x000005fc   0x00000014   Code   RO            6    i.setup             blinky.o
    0x00000610   0x00000020   Data   RO          858    .constdata__ZTV9UARTClass  uartclass.o
    0x00000630   0x00000020   Data   RO         3183    Region$$Table       anon$$obj.o
    0x00000650   0x00000004   Data   RO         1837    .init_array         wuart.o
    0x00000654   0x00000000   Data   RO         3023    .init_array         mc_p.l(cpp_init.o)


    Execution Region RW_IRAM1 (Base: 0x20000000, Size: 0x000008a0, Max: 0x00008000, ABSOLUTE)

    Base Addr    Size         Type   Attr      Idx    E Section Name        Object

    0x20000000   0x00000038   Data   RW         1084    .data               wiring_analog.o
    0x20000038   0x00000004   Data   RW         2112    .data               system_nrf51.o
    0x2000003c   0x00000060   Zero   RW         1835    .bss                wuart.o
    0x2000009c   0x00000004   PAD
    0x200000a0   0x00000800   Zero   RW         2097    STACK               arm_startup_nrf51.o


==============================================================================

Image component sizes


      Code (inc. data)   RO Data    RW Data    ZI Data      Debug   Object Name

        56         18        192          0       2048        632   arm_startup_nrf51.o
        82          0          0          0          0      37091   blinky.o
        42          4          0          0          0        877   main.o
        58          4          0          0          0       1003   nrf_delay.o
       140         28          0          0          0       1078   pin_transform.o
        20          0          0          0          0       2140   ringbuffer.o
       156         26          0          4          0       3091   system_nrf51.o
         0          0          0          0          0       5652   tone.o
        24          6         32          0          0       5812   uartclass.o
        44         10          0          0          0       1926   variant.o
         2          0          0          0          0       1625   winterrupts.o
         8          0          0          0          0        424   wiring.o
       344         34          0         56          0       3978   wiring_analog.o
       194         52          0          0          0       1185   wiring_digital.o
        24          4          4          0         96        726   wuart.o

    ----------------------------------------------------------------------
      1202        186        260         60       2148      67240   Object Totals
         0          0         32          0          0          0   (incl. Generated)
         8          0          0          0          4          0   (incl. Padding)

    ----------------------------------------------------------------------

      Code (inc. data)   RO Data    RW Data    ZI Data      Debug   Library Member Name

        32         10          0          0          0         72   cpp_init.o
         0          0          0          0          0          0   entry.o
         0          0          0          0          0          0   entry10a.o
         0          0          0          0          0          0   entry11a.o
         8          4          0          0          0          0   entry2.o
         4          0          0          0          0          0   entry5.o
         0          0          0          0          0          0   entry7b.o
         4          0          0          0          0          0   entry8a.o
         0          0          0          0          0          0   entry8b.o
         8          4          0          0          0          0   entry9a.o
        30          0          0          0          0          0   handlers.o
        36          8          0          0          0         68   init.o
        36          0          0          0          0        100   memseta.o

    ----------------------------------------------------------------------
       158         26          0          0          0        240   Library Totals
         0          0          0          0          0          0   (incl. Padding)

    ----------------------------------------------------------------------

      Code (inc. data)   RO Data    RW Data    ZI Data      Debug   Library Name

       158         26          0          0          0        240   mc_p.l

    ----------------------------------------------------------------------
       158         26          0          0          0        240   Library Totals

    ----------------------------------------------------------------------

==============================================================================


      Code (inc. data)   RO Data    RW Data    ZI Data      Debug   

      1360        212        260         60       2148      66788   Grand Totals
      1360        212        260         60       2148      66788   ELF Image Totals
      1360        212        260         60          0          0   ROM Totals

==============================================================================

    Total RO  Size (Code + RO Data)                 1620 (   1.58kB)
    Total RW  Size (RW Data + ZI Data)              2208 (   2.16kB)
    Total ROM Size (Code + RO Data + RW Data)       1680 (   1.64kB)

==============================================================================

